

Microchip MPLAB XC8 Assembler V2.35 build 20211206165544 
                                                                                               Fri Apr 15 10:50:21 2022

Microchip MPLAB XC8 C Compiler v2.35 (Free license) build 20211206165544 Og1 
     1                           	processor	16F886
     2                           	pagewidth 120
     3                           	opt	flic
     4                           	psect	idataBANK0,global,class=CODE,delta=2,noexec
     5                           	psect	strings,global,class=STRING,delta=2,noexec
     6                           	psect	cinit,global,class=CODE,merge=1,delta=2
     7                           	psect	bssBANK0,global,class=BANK0,space=1,delta=1,noexec
     8                           	psect	dataBANK0,global,class=BANK0,space=1,delta=1,noexec
     9                           	psect	cstackCOMMON,global,class=COMMON,space=1,delta=1,noexec
    10                           	psect	cstackBANK0,global,class=BANK0,space=1,delta=1,noexec
    11                           	psect	maintext,global,class=CODE,split=1,delta=2
    12                           	psect	text1,local,class=CODE,merge=1,delta=2
    13                           	psect	text2,local,class=CODE,merge=1,delta=2,group=2
    14                           	psect	text3,local,class=CODE,merge=1,delta=2,group=2
    15                           	psect	text4,local,class=CODE,merge=1,delta=2,group=2
    16                           	psect	text5,local,class=CODE,merge=1,delta=2,group=2
    17                           	psect	text6,local,class=CODE,merge=1,delta=2,group=2
    18                           	psect	text7,local,class=CODE,merge=1,delta=2
    19                           	psect	text8,local,class=CODE,merge=1,delta=2
    20                           	psect	text9,local,class=CODE,merge=1,delta=2
    21                           	psect	text10,local,class=CODE,merge=1,delta=2,group=1
    22                           	psect	text11,local,class=CODE,merge=1,delta=2,group=3
    23                           	psect	text12,local,class=CODE,merge=1,delta=2,group=2
    24                           	psect	text13,local,class=CODE,merge=1,delta=2,group=2
    25                           	psect	text14,local,class=CODE,merge=1,delta=2,group=2
    26                           	psect	text15,local,class=CODE,merge=1,delta=2
    27                           	psect	text16,local,class=CODE,merge=1,delta=2
    28                           	psect	text17,local,class=CODE,merge=1,delta=2
    29                           	psect	text18,local,class=CODE,merge=1,delta=2
    30                           	psect	text19,local,class=CODE,merge=1,delta=2
    31                           	psect	text20,local,class=CODE,merge=1,delta=2
    32                           	psect	text21,local,class=CODE,merge=1,delta=2
    33                           	psect	text22,local,class=CODE,merge=1,delta=2
    34                           	psect	text23,local,class=CODE,merge=1,delta=2
    35                           	psect	text24,local,class=CODE,merge=1,delta=2
    36                           	psect	text25,local,class=CODE,merge=1,delta=2
    37                           	psect	idloc,global,abs,ovrld,class=IDLOC,space=5,delta=2,noexec
    38                           	psect	config,global,abs,ovrld,class=CONFIG,space=4,delta=2,noexec
    39                           	dabs	1,0x7E,2
    40  0000                     
    41                           ; Version 2.40
    42                           ; Generated 17/11/2021 GMT
    43                           ; 
    44                           ; Copyright © 2021, Microchip Technology Inc. and its subsidiaries ("Microchip")
    45                           ; All rights reserved.
    46                           ; 
    47                           ; This software is developed by Microchip Technology Inc. and its subsidiaries ("Microch
      +                          ip").
    48                           ; 
    49                           ; Redistribution and use in source and binary forms, with or without modification, are
    50                           ; permitted provided that the following conditions are met:
    51                           ; 
    52                           ;     1. Redistributions of source code must retain the above copyright notice, this lis
      +                          t of
    53                           ;        conditions and the following disclaimer.
    54                           ; 
    55                           ;     2. Redistributions in binary form must reproduce the above copyright notice, this 
      +                          list
    56                           ;        of conditions and the following disclaimer in the documentation and/or other
    57                           ;        materials provided with the distribution. Publication is not required when
    58                           ;        this file is used in an embedded application.
    59                           ; 
    60                           ;     3. Microchip's name may not be used to endorse or promote products derived from th
      +                          is
    61                           ;        software without specific prior written permission.
    62                           ; 
    63                           ; THIS SOFTWARE IS PROVIDED BY MICROCHIP "AS IS" AND ANY EXPRESS OR IMPLIED WARRANTIES,
    64                           ; INCLUDING, BUT NOT LIMITED TO, THE IMPLIED WARRANTIES OF MERCHANTABILITY AND FITNESS F
      +                          OR
    65                           ; PURPOSE ARE DISCLAIMED.  IN NO EVENT SHALL MICROCHIP BE LIABLE FOR ANY DIRECT, INDIREC
      +                          T,
    66                           ; INCIDENTAL, SPECIAL, EXEMPLARY, OR CONSEQUENTIAL DAMAGES (INCLUDING BUT NOT LIMITED TO
    67                           ; PROCUREMENT OF SUBSTITUTE GOODS OR SERVICES; LOSS OF USE, DATA OR PROFITS; OR BUSINESS
    68                           ; INTERRUPTION) HOWSOEVER CAUSED AND ON ANY THEORY OF LIABILITY, WHETHER IN CONTRACT, ST
      +                          RICT
    69                           ; LIABILITY, OR TORT (INCLUDING NEGLIGENCE OR OTHERWISE) ARISING IN ANY WAY OUT OF THE U
      +                          SE OF
    70                           ; THIS SOFTWARE, EVEN IF ADVISED OF THE POSSIBILITY OF SUCH DAMAGE.
    71                           ; 
    72                           ; 
    73                           ; Code-generator required, PIC16F886 Definitions
    74                           ; 
    75                           ; SFR Addresses
    76  0000                     	;# 
    77  0001                     	;# 
    78  0002                     	;# 
    79  0003                     	;# 
    80  0004                     	;# 
    81  0005                     	;# 
    82  0006                     	;# 
    83  0007                     	;# 
    84  0009                     	;# 
    85  000A                     	;# 
    86  000B                     	;# 
    87  000C                     	;# 
    88  000D                     	;# 
    89  000E                     	;# 
    90  000E                     	;# 
    91  000F                     	;# 
    92  0010                     	;# 
    93  0011                     	;# 
    94  0012                     	;# 
    95  0013                     	;# 
    96  0014                     	;# 
    97  0015                     	;# 
    98  0015                     	;# 
    99  0016                     	;# 
   100  0017                     	;# 
   101  0018                     	;# 
   102  0019                     	;# 
   103  001A                     	;# 
   104  001B                     	;# 
   105  001B                     	;# 
   106  001C                     	;# 
   107  001D                     	;# 
   108  001E                     	;# 
   109  001F                     	;# 
   110  0081                     	;# 
   111  0085                     	;# 
   112  0086                     	;# 
   113  0087                     	;# 
   114  0089                     	;# 
   115  008C                     	;# 
   116  008D                     	;# 
   117  008E                     	;# 
   118  008F                     	;# 
   119  0090                     	;# 
   120  0091                     	;# 
   121  0092                     	;# 
   122  0093                     	;# 
   123  0093                     	;# 
   124  0093                     	;# 
   125  0094                     	;# 
   126  0095                     	;# 
   127  0096                     	;# 
   128  0097                     	;# 
   129  0098                     	;# 
   130  0099                     	;# 
   131  009A                     	;# 
   132  009B                     	;# 
   133  009C                     	;# 
   134  009D                     	;# 
   135  009E                     	;# 
   136  009F                     	;# 
   137  0105                     	;# 
   138  0107                     	;# 
   139  0108                     	;# 
   140  0109                     	;# 
   141  010C                     	;# 
   142  010C                     	;# 
   143  010D                     	;# 
   144  010E                     	;# 
   145  010F                     	;# 
   146  0185                     	;# 
   147  0187                     	;# 
   148  0188                     	;# 
   149  0189                     	;# 
   150  018C                     	;# 
   151  018D                     	;# 
   152  0000                     	;# 
   153  0001                     	;# 
   154  0002                     	;# 
   155  0003                     	;# 
   156  0004                     	;# 
   157  0005                     	;# 
   158  0006                     	;# 
   159  0007                     	;# 
   160  0009                     	;# 
   161  000A                     	;# 
   162  000B                     	;# 
   163  000C                     	;# 
   164  000D                     	;# 
   165  000E                     	;# 
   166  000E                     	;# 
   167  000F                     	;# 
   168  0010                     	;# 
   169  0011                     	;# 
   170  0012                     	;# 
   171  0013                     	;# 
   172  0014                     	;# 
   173  0015                     	;# 
   174  0015                     	;# 
   175  0016                     	;# 
   176  0017                     	;# 
   177  0018                     	;# 
   178  0019                     	;# 
   179  001A                     	;# 
   180  001B                     	;# 
   181  001B                     	;# 
   182  001C                     	;# 
   183  001D                     	;# 
   184  001E                     	;# 
   185  001F                     	;# 
   186  0081                     	;# 
   187  0085                     	;# 
   188  0086                     	;# 
   189  0087                     	;# 
   190  0089                     	;# 
   191  008C                     	;# 
   192  008D                     	;# 
   193  008E                     	;# 
   194  008F                     	;# 
   195  0090                     	;# 
   196  0091                     	;# 
   197  0092                     	;# 
   198  0093                     	;# 
   199  0093                     	;# 
   200  0093                     	;# 
   201  0094                     	;# 
   202  0095                     	;# 
   203  0096                     	;# 
   204  0097                     	;# 
   205  0098                     	;# 
   206  0099                     	;# 
   207  009A                     	;# 
   208  009B                     	;# 
   209  009C                     	;# 
   210  009D                     	;# 
   211  009E                     	;# 
   212  009F                     	;# 
   213  0105                     	;# 
   214  0107                     	;# 
   215  0108                     	;# 
   216  0109                     	;# 
   217  010C                     	;# 
   218  010C                     	;# 
   219  010D                     	;# 
   220  010E                     	;# 
   221  010F                     	;# 
   222  0185                     	;# 
   223  0187                     	;# 
   224  0188                     	;# 
   225  0189                     	;# 
   226  018C                     	;# 
   227  018D                     	;# 
   228  0000                     	;# 
   229  0001                     	;# 
   230  0002                     	;# 
   231  0003                     	;# 
   232  0004                     	;# 
   233  0005                     	;# 
   234  0006                     	;# 
   235  0007                     	;# 
   236  0009                     	;# 
   237  000A                     	;# 
   238  000B                     	;# 
   239  000C                     	;# 
   240  000D                     	;# 
   241  000E                     	;# 
   242  000E                     	;# 
   243  000F                     	;# 
   244  0010                     	;# 
   245  0011                     	;# 
   246  0012                     	;# 
   247  0013                     	;# 
   248  0014                     	;# 
   249  0015                     	;# 
   250  0015                     	;# 
   251  0016                     	;# 
   252  0017                     	;# 
   253  0018                     	;# 
   254  0019                     	;# 
   255  001A                     	;# 
   256  001B                     	;# 
   257  001B                     	;# 
   258  001C                     	;# 
   259  001D                     	;# 
   260  001E                     	;# 
   261  001F                     	;# 
   262  0081                     	;# 
   263  0085                     	;# 
   264  0086                     	;# 
   265  0087                     	;# 
   266  0089                     	;# 
   267  008C                     	;# 
   268  008D                     	;# 
   269  008E                     	;# 
   270  008F                     	;# 
   271  0090                     	;# 
   272  0091                     	;# 
   273  0092                     	;# 
   274  0093                     	;# 
   275  0093                     	;# 
   276  0093                     	;# 
   277  0094                     	;# 
   278  0095                     	;# 
   279  0096                     	;# 
   280  0097                     	;# 
   281  0098                     	;# 
   282  0099                     	;# 
   283  009A                     	;# 
   284  009B                     	;# 
   285  009C                     	;# 
   286  009D                     	;# 
   287  009E                     	;# 
   288  009F                     	;# 
   289  0105                     	;# 
   290  0107                     	;# 
   291  0108                     	;# 
   292  0109                     	;# 
   293  010C                     	;# 
   294  010C                     	;# 
   295  010D                     	;# 
   296  010E                     	;# 
   297  010F                     	;# 
   298  0185                     	;# 
   299  0187                     	;# 
   300  0188                     	;# 
   301  0189                     	;# 
   302  018C                     	;# 
   303  018D                     	;# 
   304  0000                     	;# 
   305  0001                     	;# 
   306  0002                     	;# 
   307  0003                     	;# 
   308  0004                     	;# 
   309  0005                     	;# 
   310  0006                     	;# 
   311  0007                     	;# 
   312  0009                     	;# 
   313  000A                     	;# 
   314  000B                     	;# 
   315  000C                     	;# 
   316  000D                     	;# 
   317  000E                     	;# 
   318  000E                     	;# 
   319  000F                     	;# 
   320  0010                     	;# 
   321  0011                     	;# 
   322  0012                     	;# 
   323  0013                     	;# 
   324  0014                     	;# 
   325  0015                     	;# 
   326  0015                     	;# 
   327  0016                     	;# 
   328  0017                     	;# 
   329  0018                     	;# 
   330  0019                     	;# 
   331  001A                     	;# 
   332  001B                     	;# 
   333  001B                     	;# 
   334  001C                     	;# 
   335  001D                     	;# 
   336  001E                     	;# 
   337  001F                     	;# 
   338  0081                     	;# 
   339  0085                     	;# 
   340  0086                     	;# 
   341  0087                     	;# 
   342  0089                     	;# 
   343  008C                     	;# 
   344  008D                     	;# 
   345  008E                     	;# 
   346  008F                     	;# 
   347  0090                     	;# 
   348  0091                     	;# 
   349  0092                     	;# 
   350  0093                     	;# 
   351  0093                     	;# 
   352  0093                     	;# 
   353  0094                     	;# 
   354  0095                     	;# 
   355  0096                     	;# 
   356  0097                     	;# 
   357  0098                     	;# 
   358  0099                     	;# 
   359  009A                     	;# 
   360  009B                     	;# 
   361  009C                     	;# 
   362  009D                     	;# 
   363  009E                     	;# 
   364  009F                     	;# 
   365  0105                     	;# 
   366  0107                     	;# 
   367  0108                     	;# 
   368  0109                     	;# 
   369  010C                     	;# 
   370  010C                     	;# 
   371  010D                     	;# 
   372  010E                     	;# 
   373  010F                     	;# 
   374  0185                     	;# 
   375  0187                     	;# 
   376  0188                     	;# 
   377  0189                     	;# 
   378  018C                     	;# 
   379  018D                     	;# 
   380  0000                     	;# 
   381  0001                     	;# 
   382  0002                     	;# 
   383  0003                     	;# 
   384  0004                     	;# 
   385  0005                     	;# 
   386  0006                     	;# 
   387  0007                     	;# 
   388  0009                     	;# 
   389  000A                     	;# 
   390  000B                     	;# 
   391  000C                     	;# 
   392  000D                     	;# 
   393  000E                     	;# 
   394  000E                     	;# 
   395  000F                     	;# 
   396  0010                     	;# 
   397  0011                     	;# 
   398  0012                     	;# 
   399  0013                     	;# 
   400  0014                     	;# 
   401  0015                     	;# 
   402  0015                     	;# 
   403  0016                     	;# 
   404  0017                     	;# 
   405  0018                     	;# 
   406  0019                     	;# 
   407  001A                     	;# 
   408  001B                     	;# 
   409  001B                     	;# 
   410  001C                     	;# 
   411  001D                     	;# 
   412  001E                     	;# 
   413  001F                     	;# 
   414  0081                     	;# 
   415  0085                     	;# 
   416  0086                     	;# 
   417  0087                     	;# 
   418  0089                     	;# 
   419  008C                     	;# 
   420  008D                     	;# 
   421  008E                     	;# 
   422  008F                     	;# 
   423  0090                     	;# 
   424  0091                     	;# 
   425  0092                     	;# 
   426  0093                     	;# 
   427  0093                     	;# 
   428  0093                     	;# 
   429  0094                     	;# 
   430  0095                     	;# 
   431  0096                     	;# 
   432  0097                     	;# 
   433  0098                     	;# 
   434  0099                     	;# 
   435  009A                     	;# 
   436  009B                     	;# 
   437  009C                     	;# 
   438  009D                     	;# 
   439  009E                     	;# 
   440  009F                     	;# 
   441  0105                     	;# 
   442  0107                     	;# 
   443  0108                     	;# 
   444  0109                     	;# 
   445  010C                     	;# 
   446  010C                     	;# 
   447  010D                     	;# 
   448  010E                     	;# 
   449  010F                     	;# 
   450  0185                     	;# 
   451  0187                     	;# 
   452  0188                     	;# 
   453  0189                     	;# 
   454  018C                     	;# 
   455  018D                     	;# 
   456                           
   457                           	psect	idataBANK0
   458  0003                     __pidataBANK0:
   459                           
   460                           ;initializer for _BackLight_State
   461  0003  3408               	retlw	8
   462                           
   463                           	psect	strings
   464  0800                     __pstrings:
   465  0800                     stringtab:
   466  0800                     __stringtab:
   467  0800                     stringcode:	
   468                           ;	String table - string pointers are 1 byte each
   469                           
   470  0800                     stringdir:
   471  0800  3008               	movlw	high stringdir
   472  0801  008A               	movwf	10
   473  0802  0804               	movf	4,w
   474  0803  0A84               	incf	4,f
   475  0804  0782               	addwf	2,f
   476  0805                     __stringbase:
   477  0805  3400               	retlw	0
   478  0806                     __end_of__stringtab:
   479  0806                     _dpowers:
   480  0806  3401               	retlw	1
   481  0807  3400               	retlw	0
   482  0808  340A               	retlw	10
   483  0809  3400               	retlw	0
   484  080A  3464               	retlw	100
   485  080B  3400               	retlw	0
   486  080C  34E8               	retlw	232
   487  080D  3403               	retlw	3
   488  080E  3410               	retlw	16
   489  080F  3427               	retlw	39
   490  0810                     __end_of_dpowers:
   491  001E                     _ADRESH	set	30
   492  0014                     _SSPCON	set	20
   493  0013                     _SSPBUF	set	19
   494  000C                     _PIR1bits	set	12
   495  001F                     _ADCON0bits	set	31
   496  0006                     _PORTB	set	6
   497  0005                     _PORTA	set	5
   498  0063                     _SSPIF	set	99
   499  009E                     _ADRESL	set	158
   500  0091                     _SSPCON2bits	set	145
   501  0093                     _SSPADD	set	147
   502  0091                     _SSPCON2	set	145
   503  0094                     _SSPSTAT	set	148
   504  0094                     _SSPSTATbits	set	148
   505  008C                     _PIE1bits	set	140
   506  009F                     _ADCON1bits	set	159
   507  0085                     _TRISA	set	133
   508  0086                     _TRISB	set	134
   509  048C                     _ACKEN	set	1164
   510  048D                     _ACKDT	set	1165
   511  048A                     _PEN	set	1162
   512  0489                     _RSEN	set	1161
   513  048E                     _ACKSTAT	set	1166
   514  0463                     _SSPIE	set	1123
   515  0431                     _TRISB1	set	1073
   516  0430                     _TRISB0	set	1072
   517  048B                     _RCEN	set	1163
   518  0188                     _ANSELbits	set	392
   519  0189                     _ANSELH	set	393
   520  0188                     _ANSEL	set	392
   521  0810                     STR_1:
   522  0810  3454               	retlw	84	;'T'
   523  0811  3465               	retlw	101	;'e'
   524  0812  346D               	retlw	109	;'m'
   525  0813  3470               	retlw	112	;'p'
   526  0814  343A               	retlw	58	;':'
   527  0815  3425               	retlw	37	;'%'
   528  0816  3433               	retlw	51	;'3'
   529  0817  3464               	retlw	100	;'d'
   530  0818  342A               	retlw	42	;'*'
   531  0819  3443               	retlw	67	;'C'
   532  081A  3400               	retlw	0
   533  081B                     STR_2:
   534  081B  3454               	retlw	84	;'T'
   535  081C  3465               	retlw	101	;'e'
   536  081D  346D               	retlw	109	;'m'
   537  081E  3470               	retlw	112	;'p'
   538  081F  343A               	retlw	58	;':'
   539  0820  3425               	retlw	37	;'%'
   540  0821  3433               	retlw	51	;'3'
   541  0822  3464               	retlw	100	;'d'
   542  0823  342A               	retlw	42	;'*'
   543  0824  3446               	retlw	70	;'F'
   544  0825  3400               	retlw	0
   545                           
   546                           	psect	cinit
   547  07EF                     start_initialization:	
   548                           ; #config settings
   549                           
   550  07EF                     __initialization:
   551                           
   552                           ; Initialize objects allocated to BANK0
   553  07EF  120A  118A  2003  120A  118A  	fcall	__pidataBANK0	;fetch initializer
   554  07F4  00E4               	movwf	__pdataBANK0& (0+127)
   555                           
   556                           ; Clear objects allocated to BANK0
   557  07F5  01DD               	clrf	__pbssBANK0& (0+127)
   558  07F6  01DE               	clrf	(__pbssBANK0+1)& (0+127)
   559  07F7  01DF               	clrf	(__pbssBANK0+2)& (0+127)
   560  07F8  01E0               	clrf	(__pbssBANK0+3)& (0+127)
   561  07F9  01E1               	clrf	(__pbssBANK0+4)& (0+127)
   562  07FA  01E2               	clrf	(__pbssBANK0+5)& (0+127)
   563  07FB  01E3               	clrf	(__pbssBANK0+6)& (0+127)
   564  07FC                     end_of_initialization:	
   565                           ;End of C runtime variable initialization code
   566                           
   567  07FC                     __end_of__initialization:
   568  07FC  0183               	clrf	3
   569  07FD  120A  158A  2DA7   	ljmp	_main	;jump to C main() function
   570                           
   571                           	psect	bssBANK0
   572  005D                     __pbssBANK0:
   573  005D                     _Temp_Mode:
   574  005D                     	ds	2
   575  005F                     _temperature:
   576  005F                     	ds	2
   577  0061                     _RS:
   578  0061                     	ds	1
   579  0062                     _result:
   580  0062                     	ds	2
   581                           
   582                           	psect	dataBANK0
   583  0064                     __pdataBANK0:
   584  0064                     _BackLight_State:
   585  0064                     	ds	1
   586                           
   587                           	psect	cstackCOMMON
   588  0070                     __pcstackCOMMON:
   589  0070                     ?_isdigit:
   590  0070                     ?_LCD_Clear:	
   591                           ; 1 bit 
   592                           
   593  0070                     ?_LCD_Write_String:	
   594                           ; 1 bytes @ 0x0
   595                           
   596  0070                     ?_I2C_Init:	
   597                           ; 1 bytes @ 0x0
   598                           
   599  0070                     ??_I2C_Init:	
   600                           ; 1 bytes @ 0x0
   601                           
   602  0070                     ?_LCD_Init:	
   603                           ; 1 bytes @ 0x0
   604                           
   605  0070                     ?_Update_Celsius:	
   606                           ; 1 bytes @ 0x0
   607                           
   608  0070                     ?_I2C_Ready:	
   609                           ; 1 bytes @ 0x0
   610                           
   611  0070                     ??_I2C_Ready:	
   612                           ; 1 bytes @ 0x0
   613                           
   614  0070                     ?_I2C_Write:	
   615                           ; 1 bytes @ 0x0
   616                           
   617  0070                     ??_I2C_Write:	
   618                           ; 1 bytes @ 0x0
   619                           
   620  0070                     ?_I2C_Stop:	
   621                           ; 1 bytes @ 0x0
   622                           
   623  0070                     ??_I2C_Stop:	
   624                           ; 1 bytes @ 0x0
   625                           
   626  0070                     ?_LCD_CMD:	
   627                           ; 1 bytes @ 0x0
   628                           
   629  0070                     ?_IO_Expander_Write:	
   630                           ; 1 bytes @ 0x0
   631                           
   632  0070                     ??_isdigit:	
   633                           ; 1 bytes @ 0x0
   634                           
   635  0070                     ?_Display:	
   636                           ; 1 bytes @ 0x0
   637                           
   638  0070                     ?_main:	
   639                           ; 1 bytes @ 0x0
   640                           
   641  0070                     ?_I2C_Start:	
   642                           ; 1 bytes @ 0x0
   643                           
   644  0070                     ?_LCD_Write_4Bit:	
   645                           ; 1 bytes @ 0x0
   646                           
   647  0070                     ?_LCD_Write_Char:	
   648                           ; 1 bytes @ 0x0
   649                           
   650  0070                     ?__Umul8_16:	
   651                           ; 1 bytes @ 0x0
   652                           
   653  0070                     ?___wmul:	
   654                           ; 2 bytes @ 0x0
   655                           
   656  0070                     ?___lwdiv:	
   657                           ; 2 bytes @ 0x0
   658                           
   659  0070                     ?___xxtofl:	
   660                           ; 2 bytes @ 0x0
   661                           
   662  0070                     I2C_Write@data:	
   663                           ; 4 bytes @ 0x0
   664                           
   665  0070                     __Umul8_16@multiplicand:	
   666                           ; 1 bytes @ 0x0
   667                           
   668  0070                     _isdigit$972:	
   669                           ; 1 bytes @ 0x0
   670                           
   671  0070                     ___wmul@multiplier:	
   672                           ; 1 bytes @ 0x0
   673                           
   674  0070                     ___lwdiv@divisor:	
   675                           ; 2 bytes @ 0x0
   676                           
   677  0070                     ___xxtofl@val:	
   678                           ; 2 bytes @ 0x0
   679                           
   680                           
   681                           ; 4 bytes @ 0x0
   682  0070                     	ds	1
   683  0071                     ??_I2C_Start:
   684  0071                     I2C_Start@slave_write_address:	
   685                           ; 1 bytes @ 0x1
   686                           
   687  0071                     isdigit@c:	
   688                           ; 1 bytes @ 0x1
   689                           
   690                           
   691                           ; 1 bytes @ 0x1
   692  0071                     	ds	1
   693  0072                     ??_IO_Expander_Write:
   694  0072                     ??__Umul8_16:	
   695                           ; 1 bytes @ 0x2
   696                           
   697  0072                     IO_Expander_Write@Data:	
   698                           ; 1 bytes @ 0x2
   699                           
   700  0072                     ___wmul@multiplicand:	
   701                           ; 1 bytes @ 0x2
   702                           
   703  0072                     ___lwdiv@dividend:	
   704                           ; 2 bytes @ 0x2
   705                           
   706                           
   707                           ; 2 bytes @ 0x2
   708  0072                     	ds	1
   709  0073                     ??_LCD_Write_4Bit:
   710                           
   711                           ; 1 bytes @ 0x3
   712  0073                     	ds	1
   713  0074                     ??___wmul:
   714  0074                     ??___lwdiv:	
   715                           ; 1 bytes @ 0x4
   716                           
   717  0074                     ??___xxtofl:	
   718                           ; 1 bytes @ 0x4
   719                           
   720  0074                     LCD_Write_4Bit@Nibble:	
   721                           ; 1 bytes @ 0x4
   722                           
   723  0074                     ___wmul@product:	
   724                           ; 1 bytes @ 0x4
   725                           
   726  0074                     __Umul8_16@product:	
   727                           ; 2 bytes @ 0x4
   728                           
   729                           
   730                           ; 2 bytes @ 0x4
   731  0074                     	ds	1
   732  0075                     ??_LCD_CMD:
   733  0075                     ??_LCD_Write_Char:	
   734                           ; 1 bytes @ 0x5
   735                           
   736  0075                     ___lwdiv@quotient:	
   737                           ; 1 bytes @ 0x5
   738                           
   739                           
   740                           ; 2 bytes @ 0x5
   741  0075                     	ds	1
   742  0076                     LCD_CMD@CMD:
   743  0076                     LCD_Write_Char@Data:	
   744                           ; 1 bytes @ 0x6
   745                           
   746  0076                     __Umul8_16@word_mpld:	
   747                           ; 1 bytes @ 0x6
   748                           
   749                           
   750                           ; 2 bytes @ 0x6
   751  0076                     	ds	1
   752  0077                     ??_LCD_Clear:
   753  0077                     ??_LCD_Write_String:	
   754                           ; 1 bytes @ 0x7
   755                           
   756  0077                     ?_LCD_Set_Cursor:	
   757                           ; 1 bytes @ 0x7
   758                           
   759  0077                     ??_LCD_Init:	
   760                           ; 1 bytes @ 0x7
   761                           
   762  0077                     LCD_Set_Cursor@COL:	
   763                           ; 1 bytes @ 0x7
   764                           
   765  0077                     ___lwdiv@counter:	
   766                           ; 1 bytes @ 0x7
   767                           
   768                           
   769                           ; 1 bytes @ 0x7
   770  0077                     	ds	1
   771  0078                     ??_LCD_Set_Cursor:
   772  0078                     ?___lwmod:	
   773                           ; 1 bytes @ 0x8
   774                           
   775  0078                     __Umul8_16@multiplier:	
   776                           ; 2 bytes @ 0x8
   777                           
   778  0078                     ___xxtofl@sign:	
   779                           ; 1 bytes @ 0x8
   780                           
   781  0078                     LCD_Write_String@i:	
   782                           ; 1 bytes @ 0x8
   783                           
   784  0078                     ___lwmod@divisor:	
   785                           ; 2 bytes @ 0x8
   786                           
   787                           
   788                           ; 2 bytes @ 0x8
   789  0078                     	ds	1
   790  0079                     ___xxtofl@exp:
   791                           
   792                           ; 1 bytes @ 0x9
   793  0079                     	ds	1
   794  007A                     LCD_Write_String@Str:
   795  007A                     LCD_Set_Cursor@ROW:	
   796                           ; 1 bytes @ 0xA
   797                           
   798  007A                     ___lwmod@dividend:	
   799                           ; 1 bytes @ 0xA
   800                           
   801  007A                     ___xxtofl@arg:	
   802                           ; 2 bytes @ 0xA
   803                           
   804                           
   805                           ; 4 bytes @ 0xA
   806  007A                     	ds	2
   807  007C                     ??___lwmod:
   808                           
   809                           ; 1 bytes @ 0xC
   810  007C                     	ds	1
   811  007D                     ___lwmod@counter:
   812                           
   813                           ; 1 bytes @ 0xD
   814  007D                     	ds	1
   815                           
   816                           	psect	cstackBANK0
   817  0020                     __pcstackBANK0:
   818  0020                     ?_sprintf:
   819  0020                     ?___flmul:	
   820                           ; 2 bytes @ 0x0
   821                           
   822  0020                     sprintf@f:	
   823                           ; 4 bytes @ 0x0
   824                           
   825  0020                     ___flmul@b:	
   826                           ; 1 bytes @ 0x0
   827                           
   828                           
   829                           ; 4 bytes @ 0x0
   830  0020                     	ds	3
   831  0023                     ??_sprintf:
   832                           
   833                           ; 1 bytes @ 0x3
   834  0023                     	ds	1
   835  0024                     ___flmul@a:
   836                           
   837                           ; 4 bytes @ 0x4
   838  0024                     	ds	2
   839  0026                     sprintf@ap:
   840                           
   841                           ; 1 bytes @ 0x6
   842  0026                     	ds	1
   843  0027                     sprintf@prec:
   844                           
   845                           ; 1 bytes @ 0x7
   846  0027                     	ds	1
   847  0028                     ??___flmul:
   848  0028                     sprintf@flag:	
   849                           ; 1 bytes @ 0x8
   850                           
   851                           
   852                           ; 1 bytes @ 0x8
   853  0028                     	ds	1
   854  0029                     sprintf@val:
   855                           
   856                           ; 2 bytes @ 0x9
   857  0029                     	ds	2
   858  002B                     sprintf@width:
   859                           
   860                           ; 2 bytes @ 0xB
   861  002B                     	ds	2
   862  002D                     sprintf@sp:
   863  002D                     ___flmul@sign:	
   864                           ; 1 bytes @ 0xD
   865                           
   866                           
   867                           ; 1 bytes @ 0xD
   868  002D                     	ds	1
   869  002E                     sprintf@c:
   870  002E                     ___flmul@grs:	
   871                           ; 1 bytes @ 0xE
   872                           
   873                           
   874                           ; 4 bytes @ 0xE
   875  002E                     	ds	1
   876  002F                     ??_Display:
   877                           
   878                           ; 1 bytes @ 0xF
   879  002F                     	ds	3
   880  0032                     ___flmul@aexp:
   881  0032                     Display@buffer1:	
   882                           ; 1 bytes @ 0x12
   883                           
   884                           
   885                           ; 16 bytes @ 0x12
   886  0032                     	ds	1
   887  0033                     ___flmul@bexp:
   888                           
   889                           ; 1 bytes @ 0x13
   890  0033                     	ds	1
   891  0034                     ___flmul@prod:
   892                           
   893                           ; 4 bytes @ 0x14
   894  0034                     	ds	4
   895  0038                     ___flmul@temp:
   896                           
   897                           ; 2 bytes @ 0x18
   898  0038                     	ds	2
   899  003A                     ?___fladd:
   900  003A                     ___fladd@b:	
   901                           ; 4 bytes @ 0x1A
   902                           
   903                           
   904                           ; 4 bytes @ 0x1A
   905  003A                     	ds	4
   906  003E                     ___fladd@a:
   907                           
   908                           ; 4 bytes @ 0x1E
   909  003E                     	ds	4
   910  0042                     ??___fladd:
   911  0042                     Display@buffer2:	
   912                           ; 1 bytes @ 0x22
   913                           
   914                           
   915                           ; 16 bytes @ 0x22
   916  0042                     	ds	8
   917  004A                     ___fladd@signs:
   918                           
   919                           ; 1 bytes @ 0x2A
   920  004A                     	ds	1
   921  004B                     ___fladd@aexp:
   922                           
   923                           ; 1 bytes @ 0x2B
   924  004B                     	ds	1
   925  004C                     ___fladd@bexp:
   926                           
   927                           ; 1 bytes @ 0x2C
   928  004C                     	ds	1
   929  004D                     ___fladd@grs:
   930                           
   931                           ; 1 bytes @ 0x2D
   932  004D                     	ds	1
   933  004E                     ?___fltol:
   934  004E                     ___fltol@f1:	
   935                           ; 4 bytes @ 0x2E
   936                           
   937                           
   938                           ; 4 bytes @ 0x2E
   939  004E                     	ds	4
   940  0052                     ??___fltol:
   941                           
   942                           ; 1 bytes @ 0x32
   943  0052                     	ds	5
   944  0057                     ___fltol@sign1:
   945                           
   946                           ; 1 bytes @ 0x37
   947  0057                     	ds	1
   948  0058                     ___fltol@exp1:
   949                           
   950                           ; 1 bytes @ 0x38
   951  0058                     	ds	1
   952  0059                     ??_Update_Celsius:
   953                           
   954                           ; 1 bytes @ 0x39
   955  0059                     	ds	2
   956  005B                     ??_main:
   957                           
   958                           ; 1 bytes @ 0x3B
   959  005B                     	ds	2
   960                           
   961                           	psect	maintext
   962  0DA7                     __pmaintext:	
   963 ;;
   964 ;;Main: autosize = 0, tempsize = 2, incstack = 0, save=0
   965 ;;
   966 ;; *************** function _main *****************
   967 ;; Defined at:
   968 ;;		line 31 in file "newmain.c"
   969 ;; Parameters:    Size  Location     Type
   970 ;;		None
   971 ;; Auto vars:     Size  Location     Type
   972 ;;		None
   973 ;; Return value:  Size  Location     Type
   974 ;;                  1    wreg      void 
   975 ;; Registers used:
   976 ;;		wreg, fsr0l, fsr0h, status,2, status,0, btemp+1, pclath, cstack
   977 ;; Tracked objects:
   978 ;;		On entry : B00/0
   979 ;;		On exit  : 0/0
   980 ;;		Unchanged: 0/0
   981 ;; Data sizes:     COMMON   BANK0   BANK1   BANK3   BANK2
   982 ;;      Params:         0       0       0       0       0
   983 ;;      Locals:         0       0       0       0       0
   984 ;;      Temps:          0       2       0       0       0
   985 ;;      Totals:         0       2       0       0       0
   986 ;;Total ram usage:        2 bytes
   987 ;; Hardware stack levels required when called: 8
   988 ;; This function calls:
   989 ;;		_Display
   990 ;;		_I2C_Init
   991 ;;		_LCD_Clear
   992 ;;		_LCD_Init
   993 ;;		_Update_Celsius
   994 ;; This function is called by:
   995 ;;		Startup code after reset
   996 ;; This function uses a non-reentrant model
   997 ;;
   998                           
   999  0DA7                     _main:	
  1000                           ;psect for function _main
  1001                           
  1002  0DA7                     l2521:	
  1003                           ;incstack = 0
  1004                           ; Regs used in _main: [wreg-fsr0h+status,2+status,0+btemp+1+pclath+cstack]
  1005                           
  1006                           
  1007                           ;newmain.c: 34:     TRISB = 0x0;
  1008  0DA7  1683               	bsf	3,5	;RP0=1, select bank1
  1009  0DA8  1303               	bcf	3,6	;RP1=0, select bank1
  1010  0DA9  0186               	clrf	6	;volatile
  1011  0DAA                     l2523:
  1012                           
  1013                           ;newmain.c: 35:     TRISA = 0xff;
  1014  0DAA  30FF               	movlw	255
  1015  0DAB  0085               	movwf	5	;volatile
  1016  0DAC                     l2525:
  1017                           
  1018                           ;newmain.c: 38:     PORTA = 0x0;
  1019  0DAC  1283               	bcf	3,5	;RP0=0, select bank0
  1020  0DAD  1303               	bcf	3,6	;RP1=0, select bank0
  1021  0DAE  0185               	clrf	5	;volatile
  1022  0DAF                     l2527:
  1023                           
  1024                           ;newmain.c: 39:     PORTB = 0x0;
  1025  0DAF  0186               	clrf	6	;volatile
  1026  0DB0                     l2529:
  1027                           
  1028                           ;newmain.c: 42:     ANSEL = 0x0;
  1029  0DB0  1683               	bsf	3,5	;RP0=1, select bank3
  1030  0DB1  1703               	bsf	3,6	;RP1=1, select bank3
  1031  0DB2  0188               	clrf	8	;volatile
  1032  0DB3                     l2531:
  1033                           
  1034                           ;newmain.c: 44:     ANSELH = 0x0;
  1035  0DB3  0189               	clrf	9	;volatile
  1036  0DB4                     l2533:
  1037                           
  1038                           ;newmain.c: 45:     ANSELbits.ANS3 = 1;
  1039  0DB4  1588               	bsf	8,3	;volatile
  1040  0DB5                     l2535:
  1041                           
  1042                           ;newmain.c: 48:     ADCON0bits.ADCS = 0b11;
  1043  0DB5  30C0               	movlw	192
  1044  0DB6  1283               	bcf	3,5	;RP0=0, select bank0
  1045  0DB7  1303               	bcf	3,6	;RP1=0, select bank0
  1046  0DB8  049F               	iorwf	31,f	;volatile
  1047  0DB9                     l2537:
  1048                           
  1049                           ;newmain.c: 49:     ADCON0bits.CHS = 0b0011;
  1050  0DB9  081F               	movf	31,w	;volatile
  1051  0DBA  39C3               	andlw	-61
  1052  0DBB  380C               	iorlw	12
  1053  0DBC  009F               	movwf	31	;volatile
  1054  0DBD                     l2539:
  1055                           
  1056                           ;newmain.c: 52:     ADCON1bits.VCFG1 = 0;
  1057  0DBD  1683               	bsf	3,5	;RP0=1, select bank1
  1058  0DBE  1303               	bcf	3,6	;RP1=0, select bank1
  1059  0DBF  129F               	bcf	31,5	;volatile
  1060  0DC0                     l2541:
  1061                           
  1062                           ;newmain.c: 53:     ADCON1bits.VCFG0 = 0;
  1063  0DC0  121F               	bcf	31,4	;volatile
  1064  0DC1                     l2543:
  1065                           
  1066                           ;newmain.c: 54:     ADCON1bits.ADFM = 1;
  1067  0DC1  179F               	bsf	31,7	;volatile
  1068  0DC2                     l2545:
  1069                           
  1070                           ;newmain.c: 57:     PIR1bits.ADIF = 0;
  1071  0DC2  1283               	bcf	3,5	;RP0=0, select bank0
  1072  0DC3  1303               	bcf	3,6	;RP1=0, select bank0
  1073  0DC4  130C               	bcf	12,6	;volatile
  1074  0DC5                     l2547:
  1075                           
  1076                           ;newmain.c: 60:     PIE1bits.ADIE = 1;
  1077  0DC5  1683               	bsf	3,5	;RP0=1, select bank1
  1078  0DC6  1303               	bcf	3,6	;RP1=0, select bank1
  1079  0DC7  170C               	bsf	12,6	;volatile
  1080  0DC8                     l2549:
  1081                           
  1082                           ;newmain.c: 62:     ADCON0bits.ADON = 1;
  1083  0DC8  1283               	bcf	3,5	;RP0=0, select bank0
  1084  0DC9  1303               	bcf	3,6	;RP1=0, select bank0
  1085  0DCA  141F               	bsf	31,0	;volatile
  1086  0DCB                     l2551:
  1087                           
  1088                           ;newmain.c: 64:     I2C_Init();
  1089  0DCB  120A  158A  23F0  120A  158A  	fcall	_I2C_Init
  1090  0DD0                     l2553:
  1091                           
  1092                           ;newmain.c: 65:     LCD_Init();
  1093  0DD0  120A  158A  26BF  120A  158A  	fcall	_LCD_Init
  1094  0DD5                     l2555:
  1095                           
  1096                           ;newmain.c: 66:     LCD_Clear();
  1097  0DD5  120A  158A  23BE  120A  158A  	fcall	_LCD_Clear
  1098  0DDA                     l2557:
  1099                           
  1100                           ;newmain.c: 67:     _delay((unsigned long)((10)*(8000000/4000.0)));
  1101  0DDA  301A               	movlw	26
  1102  0DDB  1283               	bcf	3,5	;RP0=0, select bank0
  1103  0DDC  1303               	bcf	3,6	;RP1=0, select bank0
  1104  0DDD  00DC               	movwf	??_main+1
  1105  0DDE  30F7               	movlw	247
  1106  0DDF  00DB               	movwf	??_main
  1107  0DE0                     u3257:
  1108  0DE0  0BDB               	decfsz	??_main,f
  1109  0DE1  2DE0               	goto	u3257
  1110  0DE2  0BDC               	decfsz	??_main+1,f
  1111  0DE3  2DE0               	goto	u3257
  1112  0DE4  2DE5               	nop2
  1113  0DE5                     l2559:
  1114                           
  1115                           ;newmain.c: 73:         Update_Celsius();
  1116  0DE5  120A  158A  2646  120A  158A  	fcall	_Update_Celsius
  1117  0DEA                     l2561:
  1118                           
  1119                           ;newmain.c: 75:         Display();
  1120  0DEA  120A  158A  25F3  120A  158A  	fcall	_Display
  1121  0DEF  2DE5               	goto	l2559
  1122  0DF0  120A  118A  2800   	ljmp	start
  1123  0DF3                     __end_of_main:
  1124                           
  1125                           	psect	text1
  1126  0E46                     __ptext1:	
  1127 ;; *************** function _Update_Celsius *****************
  1128 ;; Defined at:
  1129 ;;		line 39 in file "Temp.c"
  1130 ;; Parameters:    Size  Location     Type
  1131 ;;		None
  1132 ;; Auto vars:     Size  Location     Type
  1133 ;;		None
  1134 ;; Return value:  Size  Location     Type
  1135 ;;                  1    wreg      void 
  1136 ;; Registers used:
  1137 ;;		wreg, status,2, status,0, btemp+1, pclath, cstack
  1138 ;; Tracked objects:
  1139 ;;		On entry : 0/0
  1140 ;;		On exit  : 0/0
  1141 ;;		Unchanged: 0/0
  1142 ;; Data sizes:     COMMON   BANK0   BANK1   BANK3   BANK2
  1143 ;;      Params:         0       0       0       0       0
  1144 ;;      Locals:         0       0       0       0       0
  1145 ;;      Temps:          0       2       0       0       0
  1146 ;;      Totals:         0       2       0       0       0
  1147 ;;Total ram usage:        2 bytes
  1148 ;; Hardware stack levels used: 1
  1149 ;; Hardware stack levels required when called: 2
  1150 ;; This function calls:
  1151 ;;		___fladd
  1152 ;;		___flmul
  1153 ;;		___fltol
  1154 ;;		___xxtofl
  1155 ;; This function is called by:
  1156 ;;		_main
  1157 ;; This function uses a non-reentrant model
  1158 ;;
  1159                           
  1160  0E46                     _Update_Celsius:	
  1161                           ;psect for function _Update_Celsius
  1162                           
  1163  0E46                     l2505:	
  1164                           ;incstack = 0
  1165                           ; Regs used in _Update_Celsius: [wreg+status,2+status,0+btemp+1+pclath+cstack]
  1166                           
  1167                           
  1168                           ;Temp.c: 42:     ADCON0bits.GO = 1;
  1169  0E46  1283               	bcf	3,5	;RP0=0, select bank0
  1170  0E47  1303               	bcf	3,6	;RP1=0, select bank0
  1171  0E48  149F               	bsf	31,1	;volatile
  1172  0E49                     l254:	
  1173                           ;Temp.c: 44:     while(ADCON0bits.GO == 1);
  1174                           
  1175  0E49  189F               	btfsc	31,1	;volatile
  1176  0E4A  2E4C               	goto	u3151
  1177  0E4B  2E4D               	goto	u3150
  1178  0E4C                     u3151:
  1179  0E4C  2E49               	goto	l254
  1180  0E4D                     u3150:
  1181  0E4D                     l2507:
  1182                           
  1183                           ;Temp.c: 47:     result = 0x0000;
  1184  0E4D  01E2               	clrf	_result
  1185  0E4E  01E3               	clrf	_result+1
  1186  0E4F                     l2509:
  1187                           
  1188                           ;Temp.c: 48:     result = ADRESH;
  1189  0E4F  081E               	movf	30,w	;volatile
  1190  0E50  00D9               	movwf	??_Update_Celsius
  1191  0E51  01DA               	clrf	??_Update_Celsius+1
  1192  0E52  0859               	movf	??_Update_Celsius,w
  1193  0E53  00E2               	movwf	_result
  1194  0E54  085A               	movf	??_Update_Celsius+1,w
  1195  0E55  00E3               	movwf	_result+1
  1196  0E56                     l2511:
  1197                           
  1198                           ;Temp.c: 49:     result = result << 8;
  1199  0E56  0862               	movf	_result,w
  1200  0E57  00DA               	movwf	??_Update_Celsius+1
  1201  0E58  01D9               	clrf	??_Update_Celsius
  1202  0E59  0859               	movf	??_Update_Celsius,w
  1203  0E5A  00E2               	movwf	_result
  1204  0E5B  085A               	movf	??_Update_Celsius+1,w
  1205  0E5C  00E3               	movwf	_result+1
  1206  0E5D                     l2513:
  1207                           
  1208                           ;Temp.c: 50:     result = result | ADRESL;
  1209  0E5D  0862               	movf	_result,w
  1210  0E5E  1683               	bsf	3,5	;RP0=1, select bank1
  1211  0E5F  1303               	bcf	3,6	;RP1=0, select bank1
  1212  0E60  041E               	iorwf	30,w	;volatile
  1213  0E61  1283               	bcf	3,5	;RP0=0, select bank0
  1214  0E62  1303               	bcf	3,6	;RP1=0, select bank0
  1215  0E63  00D9               	movwf	??_Update_Celsius
  1216  0E64  0863               	movf	_result+1,w
  1217  0E65  00DA               	movwf	??_Update_Celsius+1
  1218  0E66  0859               	movf	??_Update_Celsius,w
  1219  0E67  00E2               	movwf	_result
  1220  0E68  085A               	movf	??_Update_Celsius+1,w
  1221  0E69  00E3               	movwf	_result+1
  1222  0E6A                     l2515:
  1223                           
  1224                           ;Temp.c: 52:     PIR1bits.ADIF = 0;
  1225  0E6A  130C               	bcf	12,6	;volatile
  1226  0E6B                     l2517:
  1227                           
  1228                           ;Temp.c: 53:     temperature = .17578125*result - 55;
  1229  0E6B  0862               	movf	_result,w
  1230  0E6C  00F0               	movwf	___xxtofl@val
  1231  0E6D  0863               	movf	_result+1,w
  1232  0E6E  00F1               	movwf	___xxtofl@val+1
  1233  0E6F  01F2               	clrf	___xxtofl@val+2
  1234  0E70  01F3               	clrf	___xxtofl@val+3
  1235  0E71  3000               	movlw	0
  1236  0E72  120A  158A  2746  120A  158A  	fcall	___xxtofl
  1237  0E77  0873               	movf	?___xxtofl+3,w
  1238  0E78  1283               	bcf	3,5	;RP0=0, select bank0
  1239  0E79  1303               	bcf	3,6	;RP1=0, select bank0
  1240  0E7A  00A7               	movwf	___flmul@a+3
  1241  0E7B  0872               	movf	?___xxtofl+2,w
  1242  0E7C  00A6               	movwf	___flmul@a+2
  1243  0E7D  0871               	movf	?___xxtofl+1,w
  1244  0E7E  00A5               	movwf	___flmul@a+1
  1245  0E7F  0870               	movf	?___xxtofl,w
  1246  0E80  00A4               	movwf	___flmul@a
  1247  0E81  303E               	movlw	62
  1248  0E82  00A3               	movwf	___flmul@b+3
  1249  0E83  3034               	movlw	52
  1250  0E84  00A2               	movwf	___flmul@b+2
  1251  0E85  3000               	movlw	0
  1252  0E86  00A1               	movwf	___flmul@b+1
  1253  0E87  3000               	movlw	0
  1254  0E88  00A0               	movwf	___flmul@b
  1255  0E89  120A  118A  248E  120A  158A  	fcall	___flmul
  1256  0E8E  1283               	bcf	3,5	;RP0=0, select bank0
  1257  0E8F  1303               	bcf	3,6	;RP1=0, select bank0
  1258  0E90  0823               	movf	?___flmul+3,w
  1259  0E91  00C1               	movwf	___fladd@a+3
  1260  0E92  0822               	movf	?___flmul+2,w
  1261  0E93  00C0               	movwf	___fladd@a+2
  1262  0E94  0821               	movf	?___flmul+1,w
  1263  0E95  00BF               	movwf	___fladd@a+1
  1264  0E96  0820               	movf	?___flmul,w
  1265  0E97  00BE               	movwf	___fladd@a
  1266  0E98  30C2               	movlw	194
  1267  0E99  00BD               	movwf	___fladd@b+3
  1268  0E9A  305C               	movlw	92
  1269  0E9B  00BC               	movwf	___fladd@b+2
  1270  0E9C  3000               	movlw	0
  1271  0E9D  00BB               	movwf	___fladd@b+1
  1272  0E9E  3000               	movlw	0
  1273  0E9F  00BA               	movwf	___fladd@b
  1274  0EA0  120A  118A  2206  120A  158A  	fcall	___fladd
  1275  0EA5  1283               	bcf	3,5	;RP0=0, select bank0
  1276  0EA6  1303               	bcf	3,6	;RP1=0, select bank0
  1277  0EA7  083D               	movf	?___fladd+3,w
  1278  0EA8  00D1               	movwf	___fltol@f1+3
  1279  0EA9  083C               	movf	?___fladd+2,w
  1280  0EAA  00D0               	movwf	___fltol@f1+2
  1281  0EAB  083B               	movf	?___fladd+1,w
  1282  0EAC  00CF               	movwf	___fltol@f1+1
  1283  0EAD  083A               	movf	?___fladd,w
  1284  0EAE  00CE               	movwf	___fltol@f1
  1285  0EAF  120A  118A  2004  120A  158A  	fcall	___fltol
  1286  0EB4  1283               	bcf	3,5	;RP0=0, select bank0
  1287  0EB5  1303               	bcf	3,6	;RP1=0, select bank0
  1288  0EB6  084F               	movf	?___fltol+1,w
  1289  0EB7  00E0               	movwf	_temperature+1
  1290  0EB8  084E               	movf	?___fltol,w
  1291  0EB9  00DF               	movwf	_temperature
  1292  0EBA                     l2519:
  1293                           
  1294                           ;Temp.c: 55:     Temp_Mode = 1;
  1295  0EBA  3001               	movlw	1
  1296  0EBB  00DD               	movwf	_Temp_Mode
  1297  0EBC  3000               	movlw	0
  1298  0EBD  00DE               	movwf	_Temp_Mode+1
  1299  0EBE                     l257:
  1300  0EBE  0008               	return
  1301  0EBF                     __end_of_Update_Celsius:
  1302                           
  1303                           	psect	text2
  1304  0F46                     __ptext2:	
  1305 ;; *************** function ___xxtofl *****************
  1306 ;; Defined at:
  1307 ;;		line 10 in file "C:\Program Files\Microchip\xc8\v2.35\pic\sources\c90\common\xxtofl.c"
  1308 ;; Parameters:    Size  Location     Type
  1309 ;;  sign            1    wreg     unsigned char 
  1310 ;;  val             4    0[COMMON] long 
  1311 ;; Auto vars:     Size  Location     Type
  1312 ;;  sign            1    8[COMMON] unsigned char 
  1313 ;;  arg             4   10[COMMON] unsigned long 
  1314 ;;  exp             1    9[COMMON] unsigned char 
  1315 ;; Return value:  Size  Location     Type
  1316 ;;                  4    0[COMMON] unsigned char 
  1317 ;; Registers used:
  1318 ;;		wreg, status,2, status,0
  1319 ;; Tracked objects:
  1320 ;;		On entry : 0/0
  1321 ;;		On exit  : 0/0
  1322 ;;		Unchanged: 0/0
  1323 ;; Data sizes:     COMMON   BANK0   BANK1   BANK3   BANK2
  1324 ;;      Params:         4       0       0       0       0
  1325 ;;      Locals:         6       0       0       0       0
  1326 ;;      Temps:          4       0       0       0       0
  1327 ;;      Totals:        14       0       0       0       0
  1328 ;;Total ram usage:       14 bytes
  1329 ;; Hardware stack levels used: 1
  1330 ;; This function calls:
  1331 ;;		Nothing
  1332 ;; This function is called by:
  1333 ;;		_Update_Celsius
  1334 ;;		_Update_Farenheit
  1335 ;; This function uses a non-reentrant model
  1336 ;;
  1337                           
  1338  0F46                     ___xxtofl:	
  1339                           ;psect for function ___xxtofl
  1340                           
  1341                           
  1342                           ;incstack = 0
  1343                           ; Regs used in ___xxtofl: [wreg+status,2+status,0]
  1344                           ;___xxtofl@sign stored from wreg
  1345  0F46  00F8               	movwf	___xxtofl@sign
  1346  0F47                     l2421:
  1347  0F47  0878               	movf	___xxtofl@sign,w
  1348  0F48  1903               	btfsc	3,2
  1349  0F49  2F4B               	goto	u3011
  1350  0F4A  2F4C               	goto	u3010
  1351  0F4B                     u3011:
  1352  0F4B  2F60               	goto	l2427
  1353  0F4C                     u3010:
  1354  0F4C                     l2423:
  1355  0F4C  1FF3               	btfss	___xxtofl@val+3,7
  1356  0F4D  2F4F               	goto	u3021
  1357  0F4E  2F50               	goto	u3020
  1358  0F4F                     u3021:
  1359  0F4F  2F60               	goto	l2427
  1360  0F50                     u3020:
  1361  0F50                     l2425:
  1362  0F50  0970               	comf	___xxtofl@val,w
  1363  0F51  00FA               	movwf	___xxtofl@arg
  1364  0F52  0971               	comf	___xxtofl@val+1,w
  1365  0F53  00FB               	movwf	___xxtofl@arg+1
  1366  0F54  0972               	comf	___xxtofl@val+2,w
  1367  0F55  00FC               	movwf	___xxtofl@arg+2
  1368  0F56  0973               	comf	___xxtofl@val+3,w
  1369  0F57  00FD               	movwf	___xxtofl@arg+3
  1370  0F58  0AFA               	incf	___xxtofl@arg,f
  1371  0F59  1903               	skipnz
  1372  0F5A  0AFB               	incf	___xxtofl@arg+1,f
  1373  0F5B  1903               	skipnz
  1374  0F5C  0AFC               	incf	___xxtofl@arg+2,f
  1375  0F5D  1903               	skipnz
  1376  0F5E  0AFD               	incf	___xxtofl@arg+3,f
  1377  0F5F  2F68               	goto	l815
  1378  0F60                     l2427:
  1379  0F60  0873               	movf	___xxtofl@val+3,w
  1380  0F61  00FD               	movwf	___xxtofl@arg+3
  1381  0F62  0872               	movf	___xxtofl@val+2,w
  1382  0F63  00FC               	movwf	___xxtofl@arg+2
  1383  0F64  0871               	movf	___xxtofl@val+1,w
  1384  0F65  00FB               	movwf	___xxtofl@arg+1
  1385  0F66  0870               	movf	___xxtofl@val,w
  1386  0F67  00FA               	movwf	___xxtofl@arg
  1387  0F68                     l815:
  1388  0F68  0873               	movf	___xxtofl@val+3,w
  1389  0F69  0472               	iorwf	___xxtofl@val+2,w
  1390  0F6A  0471               	iorwf	___xxtofl@val+1,w
  1391  0F6B  0470               	iorwf	___xxtofl@val,w
  1392  0F6C  1D03               	skipz
  1393  0F6D  2F6F               	goto	u3031
  1394  0F6E  2F70               	goto	u3030
  1395  0F6F                     u3031:
  1396  0F6F  2F79               	goto	l2433
  1397  0F70                     u3030:
  1398  0F70                     l2429:
  1399  0F70  3000               	movlw	0
  1400  0F71  00F3               	movwf	?___xxtofl+3
  1401  0F72  3000               	movlw	0
  1402  0F73  00F2               	movwf	?___xxtofl+2
  1403  0F74  3000               	movlw	0
  1404  0F75  00F1               	movwf	?___xxtofl+1
  1405  0F76  3000               	movlw	0
  1406  0F77  00F0               	movwf	?___xxtofl
  1407  0F78  2FFF               	goto	l817
  1408  0F79                     l2433:
  1409  0F79  3096               	movlw	150
  1410  0F7A  00F4               	movwf	??___xxtofl
  1411  0F7B  0874               	movf	??___xxtofl,w
  1412  0F7C  00F9               	movwf	___xxtofl@exp
  1413  0F7D  2F8B               	goto	l2437
  1414  0F7E                     l2435:
  1415  0F7E  3001               	movlw	1
  1416  0F7F  00F4               	movwf	??___xxtofl
  1417  0F80  0874               	movf	??___xxtofl,w
  1418  0F81  07F9               	addwf	___xxtofl@exp,f
  1419  0F82  3001               	movlw	1
  1420  0F83                     u3045:
  1421  0F83  1003               	clrc
  1422  0F84  0CFD               	rrf	___xxtofl@arg+3,f
  1423  0F85  0CFC               	rrf	___xxtofl@arg+2,f
  1424  0F86  0CFB               	rrf	___xxtofl@arg+1,f
  1425  0F87  0CFA               	rrf	___xxtofl@arg,f
  1426  0F88  3EFF               	addlw	-1
  1427  0F89  1D03               	skipz
  1428  0F8A  2F83               	goto	u3045
  1429  0F8B                     l2437:
  1430  0F8B  30FE               	movlw	254
  1431  0F8C  057D               	andwf	___xxtofl@arg+3,w
  1432  0F8D  1D03               	btfss	3,2
  1433  0F8E  2F90               	goto	u3051
  1434  0F8F  2F91               	goto	u3050
  1435  0F90                     u3051:
  1436  0F90  2F7E               	goto	l2435
  1437  0F91                     u3050:
  1438  0F91  2FAD               	goto	l821
  1439  0F92                     l2439:
  1440  0F92  3001               	movlw	1
  1441  0F93  00F4               	movwf	??___xxtofl
  1442  0F94  0874               	movf	??___xxtofl,w
  1443  0F95  07F9               	addwf	___xxtofl@exp,f
  1444  0F96                     l2441:
  1445  0F96  3001               	movlw	1
  1446  0F97  07FA               	addwf	___xxtofl@arg,f
  1447  0F98  3000               	movlw	0
  1448  0F99  1803               	skipnc
  1449  0F9A  3001               	movlw	1
  1450  0F9B  07FB               	addwf	___xxtofl@arg+1,f
  1451  0F9C  3000               	movlw	0
  1452  0F9D  1803               	skipnc
  1453  0F9E  3001               	movlw	1
  1454  0F9F  07FC               	addwf	___xxtofl@arg+2,f
  1455  0FA0  3000               	movlw	0
  1456  0FA1  1803               	skipnc
  1457  0FA2  3001               	movlw	1
  1458  0FA3  07FD               	addwf	___xxtofl@arg+3,f
  1459  0FA4                     l2443:
  1460  0FA4  3001               	movlw	1
  1461  0FA5                     u3065:
  1462  0FA5  1003               	clrc
  1463  0FA6  0CFD               	rrf	___xxtofl@arg+3,f
  1464  0FA7  0CFC               	rrf	___xxtofl@arg+2,f
  1465  0FA8  0CFB               	rrf	___xxtofl@arg+1,f
  1466  0FA9  0CFA               	rrf	___xxtofl@arg,f
  1467  0FAA  3EFF               	addlw	-1
  1468  0FAB  1D03               	skipz
  1469  0FAC  2FA5               	goto	u3065
  1470  0FAD                     l821:
  1471  0FAD  30FF               	movlw	255
  1472  0FAE  057D               	andwf	___xxtofl@arg+3,w
  1473  0FAF  1D03               	btfss	3,2
  1474  0FB0  2FB2               	goto	u3071
  1475  0FB1  2FB3               	goto	u3070
  1476  0FB2                     u3071:
  1477  0FB2  2F92               	goto	l2439
  1478  0FB3                     u3070:
  1479  0FB3  2FBF               	goto	l2447
  1480  0FB4                     l2445:
  1481  0FB4  3001               	movlw	1
  1482  0FB5  02F9               	subwf	___xxtofl@exp,f
  1483  0FB6  3001               	movlw	1
  1484  0FB7  00F4               	movwf	??___xxtofl
  1485  0FB8                     u3085:
  1486  0FB8  1003               	clrc
  1487  0FB9  0DFA               	rlf	___xxtofl@arg,f
  1488  0FBA  0DFB               	rlf	___xxtofl@arg+1,f
  1489  0FBB  0DFC               	rlf	___xxtofl@arg+2,f
  1490  0FBC  0DFD               	rlf	___xxtofl@arg+3,f
  1491  0FBD  0BF4               	decfsz	??___xxtofl,f
  1492  0FBE  2FB8               	goto	u3085
  1493  0FBF                     l2447:
  1494  0FBF  1BFC               	btfsc	___xxtofl@arg+2,7
  1495  0FC0  2FC2               	goto	u3091
  1496  0FC1  2FC3               	goto	u3090
  1497  0FC2                     u3091:
  1498  0FC2  2FC9               	goto	l828
  1499  0FC3                     u3090:
  1500  0FC3                     l2449:
  1501  0FC3  3002               	movlw	2
  1502  0FC4  0279               	subwf	___xxtofl@exp,w
  1503  0FC5  1803               	skipnc
  1504  0FC6  2FC8               	goto	u3101
  1505  0FC7  2FC9               	goto	u3100
  1506  0FC8                     u3101:
  1507  0FC8  2FB4               	goto	l2445
  1508  0FC9                     u3100:
  1509  0FC9                     l828:
  1510  0FC9  1879               	btfsc	___xxtofl@exp,0
  1511  0FCA  2FCC               	goto	u3111
  1512  0FCB  2FCD               	goto	u3110
  1513  0FCC                     u3111:
  1514  0FCC  2FD5               	goto	l829
  1515  0FCD                     u3110:
  1516  0FCD                     l2451:
  1517  0FCD  30FF               	movlw	255
  1518  0FCE  05FA               	andwf	___xxtofl@arg,f
  1519  0FCF  30FF               	movlw	255
  1520  0FD0  05FB               	andwf	___xxtofl@arg+1,f
  1521  0FD1  307F               	movlw	127
  1522  0FD2  05FC               	andwf	___xxtofl@arg+2,f
  1523  0FD3  30FF               	movlw	255
  1524  0FD4  05FD               	andwf	___xxtofl@arg+3,f
  1525  0FD5                     l829:
  1526  0FD5  1003               	clrc
  1527  0FD6  0CF9               	rrf	___xxtofl@exp,f
  1528  0FD7                     l2453:
  1529  0FD7  0879               	movf	___xxtofl@exp,w
  1530  0FD8  00F4               	movwf	??___xxtofl
  1531  0FD9  01F5               	clrf	??___xxtofl+1
  1532  0FDA  01F6               	clrf	??___xxtofl+2
  1533  0FDB  01F7               	clrf	??___xxtofl+3
  1534  0FDC  3018               	movlw	24
  1535  0FDD                     u3125:
  1536  0FDD  1003               	clrc
  1537  0FDE  0DF4               	rlf	??___xxtofl,f
  1538  0FDF  0DF5               	rlf	??___xxtofl+1,f
  1539  0FE0  0DF6               	rlf	??___xxtofl+2,f
  1540  0FE1  0DF7               	rlf	??___xxtofl+3,f
  1541  0FE2                     u3120:
  1542  0FE2  3EFF               	addlw	-1
  1543  0FE3  1D03               	skipz
  1544  0FE4  2FDD               	goto	u3125
  1545  0FE5  0874               	movf	??___xxtofl,w
  1546  0FE6  04FA               	iorwf	___xxtofl@arg,f
  1547  0FE7  0875               	movf	??___xxtofl+1,w
  1548  0FE8  04FB               	iorwf	___xxtofl@arg+1,f
  1549  0FE9  0876               	movf	??___xxtofl+2,w
  1550  0FEA  04FC               	iorwf	___xxtofl@arg+2,f
  1551  0FEB  0877               	movf	??___xxtofl+3,w
  1552  0FEC  04FD               	iorwf	___xxtofl@arg+3,f
  1553  0FED                     l2455:
  1554  0FED  0878               	movf	___xxtofl@sign,w
  1555  0FEE  1903               	btfsc	3,2
  1556  0FEF  2FF1               	goto	u3131
  1557  0FF0  2FF2               	goto	u3130
  1558  0FF1                     u3131:
  1559  0FF1  2FF7               	goto	l2461
  1560  0FF2                     u3130:
  1561  0FF2                     l2457:
  1562  0FF2  1FF3               	btfss	___xxtofl@val+3,7
  1563  0FF3  2FF5               	goto	u3141
  1564  0FF4  2FF6               	goto	u3140
  1565  0FF5                     u3141:
  1566  0FF5  2FF7               	goto	l2461
  1567  0FF6                     u3140:
  1568  0FF6                     l2459:
  1569  0FF6  17FD               	bsf	___xxtofl@arg+3,7
  1570  0FF7                     l2461:
  1571  0FF7  087D               	movf	___xxtofl@arg+3,w
  1572  0FF8  00F3               	movwf	?___xxtofl+3
  1573  0FF9  087C               	movf	___xxtofl@arg+2,w
  1574  0FFA  00F2               	movwf	?___xxtofl+2
  1575  0FFB  087B               	movf	___xxtofl@arg+1,w
  1576  0FFC  00F1               	movwf	?___xxtofl+1
  1577  0FFD  087A               	movf	___xxtofl@arg,w
  1578  0FFE  00F0               	movwf	?___xxtofl
  1579  0FFF                     l817:
  1580  0FFF  0008               	return
  1581  1000                     __end_of___xxtofl:
  1582                           
  1583                           	psect	text3
  1584  0004                     __ptext3:	
  1585 ;; *************** function ___fltol *****************
  1586 ;; Defined at:
  1587 ;;		line 43 in file "C:\Program Files\Microchip\xc8\v2.35\pic\sources\c90\common\fltol.c"
  1588 ;; Parameters:    Size  Location     Type
  1589 ;;  f1              4   46[BANK0 ] unsigned char 
  1590 ;; Auto vars:     Size  Location     Type
  1591 ;;  exp1            1   56[BANK0 ] unsigned char 
  1592 ;;  sign1           1   55[BANK0 ] unsigned char 
  1593 ;; Return value:  Size  Location     Type
  1594 ;;                  4   46[BANK0 ] long 
  1595 ;; Registers used:
  1596 ;;		wreg, status,2, status,0
  1597 ;; Tracked objects:
  1598 ;;		On entry : 0/0
  1599 ;;		On exit  : 0/0
  1600 ;;		Unchanged: 0/0
  1601 ;; Data sizes:     COMMON   BANK0   BANK1   BANK3   BANK2
  1602 ;;      Params:         0       4       0       0       0
  1603 ;;      Locals:         0       2       0       0       0
  1604 ;;      Temps:          0       5       0       0       0
  1605 ;;      Totals:         0      11       0       0       0
  1606 ;;Total ram usage:       11 bytes
  1607 ;; Hardware stack levels used: 1
  1608 ;; This function calls:
  1609 ;;		Nothing
  1610 ;; This function is called by:
  1611 ;;		_Update_Celsius
  1612 ;;		_Update_Farenheit
  1613 ;; This function uses a non-reentrant model
  1614 ;;
  1615                           
  1616  0004                     ___fltol:	
  1617                           ;psect for function ___fltol
  1618                           
  1619  0004                     l2051:	
  1620                           ;incstack = 0
  1621                           ; Regs used in ___fltol: [wreg+status,2+status,0]
  1622                           
  1623  0004  1003               	clrc
  1624  0005  1283               	bcf	3,5	;RP0=0, select bank0
  1625  0006  1303               	bcf	3,6	;RP1=0, select bank0
  1626  0007  0D50               	rlf	___fltol@f1+2,w
  1627  0008  0D51               	rlf	___fltol@f1+3,w
  1628  0009  00D2               	movwf	??___fltol
  1629  000A  0852               	movf	??___fltol,w
  1630  000B  00D8               	movwf	___fltol@exp1
  1631  000C  0858               	movf	___fltol@exp1,w
  1632  000D  1D03               	btfss	3,2
  1633  000E  2810               	goto	u2081
  1634  000F  2811               	goto	u2080
  1635  0010                     u2081:
  1636  0010  281A               	goto	l2057
  1637  0011                     u2080:
  1638  0011                     l2053:
  1639  0011  3000               	movlw	0
  1640  0012  00D1               	movwf	?___fltol+3
  1641  0013  3000               	movlw	0
  1642  0014  00D0               	movwf	?___fltol+2
  1643  0015  3000               	movlw	0
  1644  0016  00CF               	movwf	?___fltol+1
  1645  0017  3000               	movlw	0
  1646  0018  00CE               	movwf	?___fltol
  1647  0019  287F               	goto	l568
  1648  001A                     l2057:
  1649  001A  084E               	movf	___fltol@f1,w
  1650  001B  00D2               	movwf	??___fltol
  1651  001C  084F               	movf	___fltol@f1+1,w
  1652  001D  00D3               	movwf	??___fltol+1
  1653  001E  0850               	movf	___fltol@f1+2,w
  1654  001F  00D4               	movwf	??___fltol+2
  1655  0020  0851               	movf	___fltol@f1+3,w
  1656  0021  00D5               	movwf	??___fltol+3
  1657  0022  301F               	movlw	31
  1658  0023                     u2095:
  1659  0023  1003               	clrc
  1660  0024  0CD5               	rrf	??___fltol+3,f
  1661  0025  0CD4               	rrf	??___fltol+2,f
  1662  0026  0CD3               	rrf	??___fltol+1,f
  1663  0027  0CD2               	rrf	??___fltol,f
  1664  0028                     u2090:
  1665  0028  3EFF               	addlw	-1
  1666  0029  1D03               	skipz
  1667  002A  2823               	goto	u2095
  1668  002B  0852               	movf	??___fltol,w
  1669  002C  00D6               	movwf	??___fltol+4
  1670  002D  0856               	movf	??___fltol+4,w
  1671  002E  00D7               	movwf	___fltol@sign1
  1672  002F                     l2059:
  1673  002F  17D0               	bsf	___fltol@f1+2,7
  1674  0030                     l2061:
  1675  0030  30FF               	movlw	255
  1676  0031  05CE               	andwf	___fltol@f1,f
  1677  0032  30FF               	movlw	255
  1678  0033  05CF               	andwf	___fltol@f1+1,f
  1679  0034  30FF               	movlw	255
  1680  0035  05D0               	andwf	___fltol@f1+2,f
  1681  0036  3000               	movlw	0
  1682  0037  05D1               	andwf	___fltol@f1+3,f
  1683  0038                     l2063:
  1684  0038  3096               	movlw	150
  1685  0039  02D8               	subwf	___fltol@exp1,f
  1686  003A                     l2065:
  1687  003A  1FD8               	btfss	___fltol@exp1,7
  1688  003B  283D               	goto	u2101
  1689  003C  283E               	goto	u2100
  1690  003D                     u2101:
  1691  003D  2858               	goto	l2075
  1692  003E                     u2100:
  1693  003E                     l2067:
  1694  003E  0858               	movf	___fltol@exp1,w
  1695  003F  3A80               	xorlw	128
  1696  0040  3E97               	addlw	151
  1697  0041  1803               	skipnc
  1698  0042  2844               	goto	u2111
  1699  0043  2845               	goto	u2110
  1700  0044                     u2111:
  1701  0044  2846               	goto	l2073
  1702  0045                     u2110:
  1703  0045  2811               	goto	l2053
  1704  0046                     l2073:
  1705  0046  3001               	movlw	1
  1706  0047                     u2125:
  1707  0047  1003               	clrc
  1708  0048  0CD1               	rrf	___fltol@f1+3,f
  1709  0049  0CD0               	rrf	___fltol@f1+2,f
  1710  004A  0CCF               	rrf	___fltol@f1+1,f
  1711  004B  0CCE               	rrf	___fltol@f1,f
  1712  004C  3EFF               	addlw	-1
  1713  004D  1D03               	skipz
  1714  004E  2847               	goto	u2125
  1715  004F  3001               	movlw	1
  1716  0050  00D2               	movwf	??___fltol
  1717  0051  0852               	movf	??___fltol,w
  1718  0052  07D8               	addwf	___fltol@exp1,f
  1719  0053  1D03               	btfss	3,2
  1720  0054  2856               	goto	u2131
  1721  0055  2857               	goto	u2130
  1722  0056                     u2131:
  1723  0056  2846               	goto	l2073
  1724  0057                     u2130:
  1725  0057  286F               	goto	l2083
  1726  0058                     l2075:
  1727  0058  3020               	movlw	32
  1728  0059  0258               	subwf	___fltol@exp1,w
  1729  005A  1C03               	skipc
  1730  005B  285D               	goto	u2141
  1731  005C  285E               	goto	u2140
  1732  005D                     u2141:
  1733  005D  286A               	goto	l575
  1734  005E                     u2140:
  1735  005E  2811               	goto	l2053
  1736  005F                     l2081:
  1737  005F  3001               	movlw	1
  1738  0060  00D2               	movwf	??___fltol
  1739  0061                     u2155:
  1740  0061  1003               	clrc
  1741  0062  0DCE               	rlf	___fltol@f1,f
  1742  0063  0DCF               	rlf	___fltol@f1+1,f
  1743  0064  0DD0               	rlf	___fltol@f1+2,f
  1744  0065  0DD1               	rlf	___fltol@f1+3,f
  1745  0066  0BD2               	decfsz	??___fltol,f
  1746  0067  2861               	goto	u2155
  1747  0068  3001               	movlw	1
  1748  0069  02D8               	subwf	___fltol@exp1,f
  1749  006A                     l575:
  1750  006A  0858               	movf	___fltol@exp1,w
  1751  006B  1D03               	btfss	3,2
  1752  006C  286E               	goto	u2161
  1753  006D  286F               	goto	u2160
  1754  006E                     u2161:
  1755  006E  285F               	goto	l2081
  1756  006F                     u2160:
  1757  006F                     l2083:
  1758  006F  0857               	movf	___fltol@sign1,w
  1759  0070  1903               	btfsc	3,2
  1760  0071  2873               	goto	u2171
  1761  0072  2874               	goto	u2170
  1762  0073                     u2171:
  1763  0073  287F               	goto	l578
  1764  0074                     u2170:
  1765  0074                     l2085:
  1766  0074  09CE               	comf	___fltol@f1,f
  1767  0075  09CF               	comf	___fltol@f1+1,f
  1768  0076  09D0               	comf	___fltol@f1+2,f
  1769  0077  09D1               	comf	___fltol@f1+3,f
  1770  0078  0ACE               	incf	___fltol@f1,f
  1771  0079  1903               	skipnz
  1772  007A  0ACF               	incf	___fltol@f1+1,f
  1773  007B  1903               	skipnz
  1774  007C  0AD0               	incf	___fltol@f1+2,f
  1775  007D  1903               	skipnz
  1776  007E  0AD1               	incf	___fltol@f1+3,f
  1777  007F                     l578:
  1778  007F                     l568:
  1779  007F  0008               	return
  1780  0080                     __end_of___fltol:
  1781                           
  1782                           	psect	text4
  1783  048E                     __ptext4:	
  1784 ;; *************** function ___flmul *****************
  1785 ;; Defined at:
  1786 ;;		line 8 in file "C:\Program Files\Microchip\xc8\v2.35\pic\sources\c90\common\sprcmul.c"
  1787 ;; Parameters:    Size  Location     Type
  1788 ;;  b               4    0[BANK0 ] long 
  1789 ;;  a               4    4[BANK0 ] long 
  1790 ;; Auto vars:     Size  Location     Type
  1791 ;;  prod            4   20[BANK0 ] struct .
  1792 ;;  grs             4   14[BANK0 ] unsigned long 
  1793 ;;  temp            2   24[BANK0 ] struct .
  1794 ;;  bexp            1   19[BANK0 ] unsigned char 
  1795 ;;  aexp            1   18[BANK0 ] unsigned char 
  1796 ;;  sign            1   13[BANK0 ] unsigned char 
  1797 ;; Return value:  Size  Location     Type
  1798 ;;                  4    0[BANK0 ] unsigned char 
  1799 ;; Registers used:
  1800 ;;		wreg, status,2, status,0, btemp+1, pclath, cstack
  1801 ;; Tracked objects:
  1802 ;;		On entry : 0/0
  1803 ;;		On exit  : 0/0
  1804 ;;		Unchanged: 0/0
  1805 ;; Data sizes:     COMMON   BANK0   BANK1   BANK3   BANK2
  1806 ;;      Params:         0       8       0       0       0
  1807 ;;      Locals:         0      13       0       0       0
  1808 ;;      Temps:          0       5       0       0       0
  1809 ;;      Totals:         0      26       0       0       0
  1810 ;;Total ram usage:       26 bytes
  1811 ;; Hardware stack levels used: 1
  1812 ;; Hardware stack levels required when called: 1
  1813 ;; This function calls:
  1814 ;;		__Umul8_16
  1815 ;; This function is called by:
  1816 ;;		_Update_Celsius
  1817 ;;		_Update_Farenheit
  1818 ;; This function uses a non-reentrant model
  1819 ;;
  1820                           
  1821  048E                     ___flmul:	
  1822                           ;psect for function ___flmul
  1823                           
  1824  048E                     l2281:	
  1825                           ;incstack = 0
  1826                           ; Regs used in ___flmul: [wreg+status,2+status,0+btemp+1+pclath+cstack]
  1827                           
  1828  048E  1283               	bcf	3,5	;RP0=0, select bank0
  1829  048F  1303               	bcf	3,6	;RP1=0, select bank0
  1830  0490  0823               	movf	___flmul@b+3,w
  1831  0491  3980               	andlw	128
  1832  0492  00A8               	movwf	??___flmul
  1833  0493  0828               	movf	??___flmul,w
  1834  0494  00AD               	movwf	___flmul@sign
  1835  0495                     l2283:
  1836  0495  0823               	movf	___flmul@b+3,w
  1837  0496  00A8               	movwf	??___flmul
  1838  0497  0728               	addwf	??___flmul,w
  1839  0498  00A9               	movwf	??___flmul+1
  1840  0499  0829               	movf	??___flmul+1,w
  1841  049A  00B3               	movwf	___flmul@bexp
  1842  049B                     l2285:
  1843  049B  1FA2               	btfss	___flmul@b+2,7
  1844  049C  2C9E               	goto	u2641
  1845  049D  2C9F               	goto	u2640
  1846  049E                     u2641:
  1847  049E  2CA0               	goto	l2289
  1848  049F                     u2640:
  1849  049F                     l2287:
  1850  049F  1433               	bsf	___flmul@bexp,0
  1851  04A0                     l2289:
  1852  04A0  0833               	movf	___flmul@bexp,w
  1853  04A1  1903               	btfsc	3,2
  1854  04A2  2CA4               	goto	u2651
  1855  04A3  2CA5               	goto	u2650
  1856  04A4                     u2651:
  1857  04A4  2CB4               	goto	l2297
  1858  04A5                     u2650:
  1859  04A5                     l2291:
  1860  04A5  0A33               	incf	___flmul@bexp,w
  1861  04A6  1D03               	btfss	3,2
  1862  04A7  2CA9               	goto	u2661
  1863  04A8  2CAA               	goto	u2660
  1864  04A9                     u2661:
  1865  04A9  2CB2               	goto	l2295
  1866  04AA                     u2660:
  1867  04AA                     l2293:
  1868  04AA  3000               	movlw	0
  1869  04AB  00A3               	movwf	___flmul@b+3
  1870  04AC  3000               	movlw	0
  1871  04AD  00A2               	movwf	___flmul@b+2
  1872  04AE  3000               	movlw	0
  1873  04AF  00A1               	movwf	___flmul@b+1
  1874  04B0  3000               	movlw	0
  1875  04B1  00A0               	movwf	___flmul@b
  1876  04B2                     l2295:
  1877  04B2  17A2               	bsf	___flmul@b+2,7
  1878  04B3  2CBC               	goto	l2299
  1879  04B4                     l2297:
  1880  04B4  3000               	movlw	0
  1881  04B5  00A3               	movwf	___flmul@b+3
  1882  04B6  3000               	movlw	0
  1883  04B7  00A2               	movwf	___flmul@b+2
  1884  04B8  3000               	movlw	0
  1885  04B9  00A1               	movwf	___flmul@b+1
  1886  04BA  3000               	movlw	0
  1887  04BB  00A0               	movwf	___flmul@b
  1888  04BC                     l2299:
  1889  04BC  0827               	movf	___flmul@a+3,w
  1890  04BD  3980               	andlw	128
  1891  04BE  00A8               	movwf	??___flmul
  1892  04BF  0828               	movf	??___flmul,w
  1893  04C0  06AD               	xorwf	___flmul@sign,f
  1894  04C1                     l2301:
  1895  04C1  0827               	movf	___flmul@a+3,w
  1896  04C2  00A8               	movwf	??___flmul
  1897  04C3  0728               	addwf	??___flmul,w
  1898  04C4  00A9               	movwf	??___flmul+1
  1899  04C5  0829               	movf	??___flmul+1,w
  1900  04C6  00B2               	movwf	___flmul@aexp
  1901  04C7                     l2303:
  1902  04C7  1FA6               	btfss	___flmul@a+2,7
  1903  04C8  2CCA               	goto	u2671
  1904  04C9  2CCB               	goto	u2670
  1905  04CA                     u2671:
  1906  04CA  2CCC               	goto	l2307
  1907  04CB                     u2670:
  1908  04CB                     l2305:
  1909  04CB  1432               	bsf	___flmul@aexp,0
  1910  04CC                     l2307:
  1911  04CC  0832               	movf	___flmul@aexp,w
  1912  04CD  1903               	btfsc	3,2
  1913  04CE  2CD0               	goto	u2681
  1914  04CF  2CD1               	goto	u2680
  1915  04D0                     u2681:
  1916  04D0  2CE0               	goto	l2315
  1917  04D1                     u2680:
  1918  04D1                     l2309:
  1919  04D1  0A32               	incf	___flmul@aexp,w
  1920  04D2  1D03               	btfss	3,2
  1921  04D3  2CD5               	goto	u2691
  1922  04D4  2CD6               	goto	u2690
  1923  04D5                     u2691:
  1924  04D5  2CDE               	goto	l2313
  1925  04D6                     u2690:
  1926  04D6                     l2311:
  1927  04D6  3000               	movlw	0
  1928  04D7  00A7               	movwf	___flmul@a+3
  1929  04D8  3000               	movlw	0
  1930  04D9  00A6               	movwf	___flmul@a+2
  1931  04DA  3000               	movlw	0
  1932  04DB  00A5               	movwf	___flmul@a+1
  1933  04DC  3000               	movlw	0
  1934  04DD  00A4               	movwf	___flmul@a
  1935  04DE                     l2313:
  1936  04DE  17A6               	bsf	___flmul@a+2,7
  1937  04DF  2CE8               	goto	l2317
  1938  04E0                     l2315:
  1939  04E0  3000               	movlw	0
  1940  04E1  00A7               	movwf	___flmul@a+3
  1941  04E2  3000               	movlw	0
  1942  04E3  00A6               	movwf	___flmul@a+2
  1943  04E4  3000               	movlw	0
  1944  04E5  00A5               	movwf	___flmul@a+1
  1945  04E6  3000               	movlw	0
  1946  04E7  00A4               	movwf	___flmul@a
  1947  04E8                     l2317:
  1948  04E8  0832               	movf	___flmul@aexp,w
  1949  04E9  1903               	btfsc	3,2
  1950  04EA  2CEC               	goto	u2701
  1951  04EB  2CED               	goto	u2700
  1952  04EC                     u2701:
  1953  04EC  2CF2               	goto	l2321
  1954  04ED                     u2700:
  1955  04ED                     l2319:
  1956  04ED  0833               	movf	___flmul@bexp,w
  1957  04EE  1D03               	btfss	3,2
  1958  04EF  2CF1               	goto	u2711
  1959  04F0  2CF2               	goto	u2710
  1960  04F1                     u2711:
  1961  04F1  2CFB               	goto	l2325
  1962  04F2                     u2710:
  1963  04F2                     l2321:
  1964  04F2  3000               	movlw	0
  1965  04F3  00A3               	movwf	?___flmul+3
  1966  04F4  3000               	movlw	0
  1967  04F5  00A2               	movwf	?___flmul+2
  1968  04F6  3000               	movlw	0
  1969  04F7  00A1               	movwf	?___flmul+1
  1970  04F8  3000               	movlw	0
  1971  04F9  00A0               	movwf	?___flmul
  1972  04FA  2FEE               	goto	l771
  1973  04FB                     l2325:
  1974  04FB  0820               	movf	___flmul@b,w
  1975  04FC  00A8               	movwf	??___flmul
  1976  04FD  0828               	movf	??___flmul,w
  1977  04FE  00F0               	movwf	__Umul8_16@multiplicand
  1978  04FF  0826               	movf	___flmul@a+2,w
  1979  0500  120A  158A  24CC  120A  118A  	fcall	__Umul8_16
  1980  0505  0871               	movf	?__Umul8_16+1,w
  1981  0506  1283               	bcf	3,5	;RP0=0, select bank0
  1982  0507  1303               	bcf	3,6	;RP1=0, select bank0
  1983  0508  00B9               	movwf	___flmul@temp+1
  1984  0509  0870               	movf	?__Umul8_16,w
  1985  050A  00B8               	movwf	___flmul@temp
  1986  050B                     l2327:
  1987  050B  0838               	movf	___flmul@temp,w
  1988  050C  00A8               	movwf	??___flmul
  1989  050D  01A9               	clrf	??___flmul+1
  1990  050E  01AA               	clrf	??___flmul+2
  1991  050F  01AB               	clrf	??___flmul+3
  1992  0510  082B               	movf	??___flmul+3,w
  1993  0511  00B1               	movwf	___flmul@grs+3
  1994  0512  082A               	movf	??___flmul+2,w
  1995  0513  00B0               	movwf	___flmul@grs+2
  1996  0514  0829               	movf	??___flmul+1,w
  1997  0515  00AF               	movwf	___flmul@grs+1
  1998  0516  0828               	movf	??___flmul,w
  1999  0517  00AE               	movwf	___flmul@grs
  2000  0518                     l2329:
  2001  0518  0839               	movf	___flmul@temp+1,w
  2002  0519  00A8               	movwf	??___flmul
  2003  051A  01A9               	clrf	??___flmul+1
  2004  051B  01AA               	clrf	??___flmul+2
  2005  051C  01AB               	clrf	??___flmul+3
  2006  051D  082B               	movf	??___flmul+3,w
  2007  051E  00B7               	movwf	___flmul@prod+3
  2008  051F  082A               	movf	??___flmul+2,w
  2009  0520  00B6               	movwf	___flmul@prod+2
  2010  0521  0829               	movf	??___flmul+1,w
  2011  0522  00B5               	movwf	___flmul@prod+1
  2012  0523  0828               	movf	??___flmul,w
  2013  0524  00B4               	movwf	___flmul@prod
  2014  0525  0821               	movf	___flmul@b+1,w
  2015  0526  00A8               	movwf	??___flmul
  2016  0527  0828               	movf	??___flmul,w
  2017  0528  00F0               	movwf	__Umul8_16@multiplicand
  2018  0529  0825               	movf	___flmul@a+1,w
  2019  052A  120A  158A  24CC  120A  118A  	fcall	__Umul8_16
  2020  052F  0871               	movf	?__Umul8_16+1,w
  2021  0530  1283               	bcf	3,5	;RP0=0, select bank0
  2022  0531  1303               	bcf	3,6	;RP1=0, select bank0
  2023  0532  00B9               	movwf	___flmul@temp+1
  2024  0533  0870               	movf	?__Umul8_16,w
  2025  0534  00B8               	movwf	___flmul@temp
  2026  0535                     l2331:
  2027  0535  0838               	movf	___flmul@temp,w
  2028  0536  00A8               	movwf	??___flmul
  2029  0537  01A9               	clrf	??___flmul+1
  2030  0538  01AA               	clrf	??___flmul+2
  2031  0539  01AB               	clrf	??___flmul+3
  2032  053A  0828               	movf	??___flmul,w
  2033  053B  07AE               	addwf	___flmul@grs,f
  2034  053C  0829               	movf	??___flmul+1,w
  2035  053D  1103               	clrz
  2036  053E  1803               	skipnc
  2037  053F  3E01               	addlw	1
  2038  0540  1903               	skipnz
  2039  0541  2D43               	goto	u2721
  2040  0542  07AF               	addwf	___flmul@grs+1,f
  2041  0543                     u2721:
  2042  0543  082A               	movf	??___flmul+2,w
  2043  0544  1103               	clrz
  2044  0545  1803               	skipnc
  2045  0546  3E01               	addlw	1
  2046  0547  1903               	skipnz
  2047  0548  2D4A               	goto	u2722
  2048  0549  07B0               	addwf	___flmul@grs+2,f
  2049  054A                     u2722:
  2050  054A  082B               	movf	??___flmul+3,w
  2051  054B  1103               	clrz
  2052  054C  1803               	skipnc
  2053  054D  3E01               	addlw	1
  2054  054E  1903               	skipnz
  2055  054F  2D51               	goto	u2723
  2056  0550  07B1               	addwf	___flmul@grs+3,f
  2057  0551                     u2723:
  2058  0551                     l2333:
  2059  0551  0839               	movf	___flmul@temp+1,w
  2060  0552  00A8               	movwf	??___flmul
  2061  0553  01A9               	clrf	??___flmul+1
  2062  0554  01AA               	clrf	??___flmul+2
  2063  0555  01AB               	clrf	??___flmul+3
  2064  0556  0828               	movf	??___flmul,w
  2065  0557  07B4               	addwf	___flmul@prod,f
  2066  0558  0829               	movf	??___flmul+1,w
  2067  0559  1103               	clrz
  2068  055A  1803               	skipnc
  2069  055B  3E01               	addlw	1
  2070  055C  1903               	skipnz
  2071  055D  2D5F               	goto	u2731
  2072  055E  07B5               	addwf	___flmul@prod+1,f
  2073  055F                     u2731:
  2074  055F  082A               	movf	??___flmul+2,w
  2075  0560  1103               	clrz
  2076  0561  1803               	skipnc
  2077  0562  3E01               	addlw	1
  2078  0563  1903               	skipnz
  2079  0564  2D66               	goto	u2732
  2080  0565  07B6               	addwf	___flmul@prod+2,f
  2081  0566                     u2732:
  2082  0566  082B               	movf	??___flmul+3,w
  2083  0567  1103               	clrz
  2084  0568  1803               	skipnc
  2085  0569  3E01               	addlw	1
  2086  056A  1903               	skipnz
  2087  056B  2D6D               	goto	u2733
  2088  056C  07B7               	addwf	___flmul@prod+3,f
  2089  056D                     u2733:
  2090  056D  0822               	movf	___flmul@b+2,w
  2091  056E  00A8               	movwf	??___flmul
  2092  056F  0828               	movf	??___flmul,w
  2093  0570  00F0               	movwf	__Umul8_16@multiplicand
  2094  0571  0824               	movf	___flmul@a,w
  2095  0572  120A  158A  24CC  120A  118A  	fcall	__Umul8_16
  2096  0577  0871               	movf	?__Umul8_16+1,w
  2097  0578  1283               	bcf	3,5	;RP0=0, select bank0
  2098  0579  1303               	bcf	3,6	;RP1=0, select bank0
  2099  057A  00B9               	movwf	___flmul@temp+1
  2100  057B  0870               	movf	?__Umul8_16,w
  2101  057C  00B8               	movwf	___flmul@temp
  2102  057D                     l2335:
  2103  057D  0838               	movf	___flmul@temp,w
  2104  057E  00A8               	movwf	??___flmul
  2105  057F  01A9               	clrf	??___flmul+1
  2106  0580  01AA               	clrf	??___flmul+2
  2107  0581  01AB               	clrf	??___flmul+3
  2108  0582  0828               	movf	??___flmul,w
  2109  0583  07AE               	addwf	___flmul@grs,f
  2110  0584  0829               	movf	??___flmul+1,w
  2111  0585  1103               	clrz
  2112  0586  1803               	skipnc
  2113  0587  3E01               	addlw	1
  2114  0588  1903               	skipnz
  2115  0589  2D8B               	goto	u2741
  2116  058A  07AF               	addwf	___flmul@grs+1,f
  2117  058B                     u2741:
  2118  058B  082A               	movf	??___flmul+2,w
  2119  058C  1103               	clrz
  2120  058D  1803               	skipnc
  2121  058E  3E01               	addlw	1
  2122  058F  1903               	skipnz
  2123  0590  2D92               	goto	u2742
  2124  0591  07B0               	addwf	___flmul@grs+2,f
  2125  0592                     u2742:
  2126  0592  082B               	movf	??___flmul+3,w
  2127  0593  1103               	clrz
  2128  0594  1803               	skipnc
  2129  0595  3E01               	addlw	1
  2130  0596  1903               	skipnz
  2131  0597  2D99               	goto	u2743
  2132  0598  07B1               	addwf	___flmul@grs+3,f
  2133  0599                     u2743:
  2134  0599                     l2337:
  2135  0599  0839               	movf	___flmul@temp+1,w
  2136  059A  00A8               	movwf	??___flmul
  2137  059B  01A9               	clrf	??___flmul+1
  2138  059C  01AA               	clrf	??___flmul+2
  2139  059D  01AB               	clrf	??___flmul+3
  2140  059E  0828               	movf	??___flmul,w
  2141  059F  07B4               	addwf	___flmul@prod,f
  2142  05A0  0829               	movf	??___flmul+1,w
  2143  05A1  1103               	clrz
  2144  05A2  1803               	skipnc
  2145  05A3  3E01               	addlw	1
  2146  05A4  1903               	skipnz
  2147  05A5  2DA7               	goto	u2751
  2148  05A6  07B5               	addwf	___flmul@prod+1,f
  2149  05A7                     u2751:
  2150  05A7  082A               	movf	??___flmul+2,w
  2151  05A8  1103               	clrz
  2152  05A9  1803               	skipnc
  2153  05AA  3E01               	addlw	1
  2154  05AB  1903               	skipnz
  2155  05AC  2DAE               	goto	u2752
  2156  05AD  07B6               	addwf	___flmul@prod+2,f
  2157  05AE                     u2752:
  2158  05AE  082B               	movf	??___flmul+3,w
  2159  05AF  1103               	clrz
  2160  05B0  1803               	skipnc
  2161  05B1  3E01               	addlw	1
  2162  05B2  1903               	skipnz
  2163  05B3  2DB5               	goto	u2753
  2164  05B4  07B7               	addwf	___flmul@prod+3,f
  2165  05B5                     u2753:
  2166  05B5                     l2339:
  2167  05B5  3008               	movlw	8
  2168  05B6  00A8               	movwf	??___flmul
  2169  05B7                     u2765:
  2170  05B7  1003               	clrc
  2171  05B8  0DAE               	rlf	___flmul@grs,f
  2172  05B9  0DAF               	rlf	___flmul@grs+1,f
  2173  05BA  0DB0               	rlf	___flmul@grs+2,f
  2174  05BB  0DB1               	rlf	___flmul@grs+3,f
  2175  05BC  0BA8               	decfsz	??___flmul,f
  2176  05BD  2DB7               	goto	u2765
  2177  05BE                     l2341:
  2178  05BE  0821               	movf	___flmul@b+1,w
  2179  05BF  00A8               	movwf	??___flmul
  2180  05C0  0828               	movf	??___flmul,w
  2181  05C1  00F0               	movwf	__Umul8_16@multiplicand
  2182  05C2  0824               	movf	___flmul@a,w
  2183  05C3  120A  158A  24CC  120A  118A  	fcall	__Umul8_16
  2184  05C8  0871               	movf	?__Umul8_16+1,w
  2185  05C9  1283               	bcf	3,5	;RP0=0, select bank0
  2186  05CA  1303               	bcf	3,6	;RP1=0, select bank0
  2187  05CB  00B9               	movwf	___flmul@temp+1
  2188  05CC  0870               	movf	?__Umul8_16,w
  2189  05CD  00B8               	movwf	___flmul@temp
  2190  05CE                     l2343:
  2191  05CE  0838               	movf	___flmul@temp,w
  2192  05CF  00A8               	movwf	??___flmul
  2193  05D0  0839               	movf	___flmul@temp+1,w
  2194  05D1  00A9               	movwf	??___flmul+1
  2195  05D2  01AA               	clrf	??___flmul+2
  2196  05D3  01AB               	clrf	??___flmul+3
  2197  05D4  0828               	movf	??___flmul,w
  2198  05D5  07AE               	addwf	___flmul@grs,f
  2199  05D6  0829               	movf	??___flmul+1,w
  2200  05D7  1103               	clrz
  2201  05D8  1803               	skipnc
  2202  05D9  3E01               	addlw	1
  2203  05DA  1903               	skipnz
  2204  05DB  2DDD               	goto	u2771
  2205  05DC  07AF               	addwf	___flmul@grs+1,f
  2206  05DD                     u2771:
  2207  05DD  082A               	movf	??___flmul+2,w
  2208  05DE  1103               	clrz
  2209  05DF  1803               	skipnc
  2210  05E0  3E01               	addlw	1
  2211  05E1  1903               	skipnz
  2212  05E2  2DE4               	goto	u2772
  2213  05E3  07B0               	addwf	___flmul@grs+2,f
  2214  05E4                     u2772:
  2215  05E4  082B               	movf	??___flmul+3,w
  2216  05E5  1103               	clrz
  2217  05E6  1803               	skipnc
  2218  05E7  3E01               	addlw	1
  2219  05E8  1903               	skipnz
  2220  05E9  2DEB               	goto	u2773
  2221  05EA  07B1               	addwf	___flmul@grs+3,f
  2222  05EB                     u2773:
  2223  05EB                     l2345:
  2224  05EB  0820               	movf	___flmul@b,w
  2225  05EC  00A8               	movwf	??___flmul
  2226  05ED  0828               	movf	??___flmul,w
  2227  05EE  00F0               	movwf	__Umul8_16@multiplicand
  2228  05EF  0825               	movf	___flmul@a+1,w
  2229  05F0  120A  158A  24CC  120A  118A  	fcall	__Umul8_16
  2230  05F5  0871               	movf	?__Umul8_16+1,w
  2231  05F6  1283               	bcf	3,5	;RP0=0, select bank0
  2232  05F7  1303               	bcf	3,6	;RP1=0, select bank0
  2233  05F8  00B9               	movwf	___flmul@temp+1
  2234  05F9  0870               	movf	?__Umul8_16,w
  2235  05FA  00B8               	movwf	___flmul@temp
  2236  05FB                     l2347:
  2237  05FB  0838               	movf	___flmul@temp,w
  2238  05FC  00A8               	movwf	??___flmul
  2239  05FD  0839               	movf	___flmul@temp+1,w
  2240  05FE  00A9               	movwf	??___flmul+1
  2241  05FF  01AA               	clrf	??___flmul+2
  2242  0600  01AB               	clrf	??___flmul+3
  2243  0601  0828               	movf	??___flmul,w
  2244  0602  07AE               	addwf	___flmul@grs,f
  2245  0603  0829               	movf	??___flmul+1,w
  2246  0604  1103               	clrz
  2247  0605  1803               	skipnc
  2248  0606  3E01               	addlw	1
  2249  0607  1903               	skipnz
  2250  0608  2E0A               	goto	u2781
  2251  0609  07AF               	addwf	___flmul@grs+1,f
  2252  060A                     u2781:
  2253  060A  082A               	movf	??___flmul+2,w
  2254  060B  1103               	clrz
  2255  060C  1803               	skipnc
  2256  060D  3E01               	addlw	1
  2257  060E  1903               	skipnz
  2258  060F  2E11               	goto	u2782
  2259  0610  07B0               	addwf	___flmul@grs+2,f
  2260  0611                     u2782:
  2261  0611  082B               	movf	??___flmul+3,w
  2262  0612  1103               	clrz
  2263  0613  1803               	skipnc
  2264  0614  3E01               	addlw	1
  2265  0615  1903               	skipnz
  2266  0616  2E18               	goto	u2783
  2267  0617  07B1               	addwf	___flmul@grs+3,f
  2268  0618                     u2783:
  2269  0618                     l2349:
  2270  0618  3008               	movlw	8
  2271  0619  00A8               	movwf	??___flmul
  2272  061A                     u2795:
  2273  061A  1003               	clrc
  2274  061B  0DAE               	rlf	___flmul@grs,f
  2275  061C  0DAF               	rlf	___flmul@grs+1,f
  2276  061D  0DB0               	rlf	___flmul@grs+2,f
  2277  061E  0DB1               	rlf	___flmul@grs+3,f
  2278  061F  0BA8               	decfsz	??___flmul,f
  2279  0620  2E1A               	goto	u2795
  2280  0621  0820               	movf	___flmul@b,w
  2281  0622  00A8               	movwf	??___flmul
  2282  0623  0828               	movf	??___flmul,w
  2283  0624  00F0               	movwf	__Umul8_16@multiplicand
  2284  0625  0824               	movf	___flmul@a,w
  2285  0626  120A  158A  24CC  120A  118A  	fcall	__Umul8_16
  2286  062B  0871               	movf	?__Umul8_16+1,w
  2287  062C  1283               	bcf	3,5	;RP0=0, select bank0
  2288  062D  1303               	bcf	3,6	;RP1=0, select bank0
  2289  062E  00B9               	movwf	___flmul@temp+1
  2290  062F  0870               	movf	?__Umul8_16,w
  2291  0630  00B8               	movwf	___flmul@temp
  2292  0631                     l2351:
  2293  0631  0838               	movf	___flmul@temp,w
  2294  0632  00A8               	movwf	??___flmul
  2295  0633  0839               	movf	___flmul@temp+1,w
  2296  0634  00A9               	movwf	??___flmul+1
  2297  0635  01AA               	clrf	??___flmul+2
  2298  0636  01AB               	clrf	??___flmul+3
  2299  0637  0828               	movf	??___flmul,w
  2300  0638  07AE               	addwf	___flmul@grs,f
  2301  0639  0829               	movf	??___flmul+1,w
  2302  063A  1103               	clrz
  2303  063B  1803               	skipnc
  2304  063C  3E01               	addlw	1
  2305  063D  1903               	skipnz
  2306  063E  2E40               	goto	u2801
  2307  063F  07AF               	addwf	___flmul@grs+1,f
  2308  0640                     u2801:
  2309  0640  082A               	movf	??___flmul+2,w
  2310  0641  1103               	clrz
  2311  0642  1803               	skipnc
  2312  0643  3E01               	addlw	1
  2313  0644  1903               	skipnz
  2314  0645  2E47               	goto	u2802
  2315  0646  07B0               	addwf	___flmul@grs+2,f
  2316  0647                     u2802:
  2317  0647  082B               	movf	??___flmul+3,w
  2318  0648  1103               	clrz
  2319  0649  1803               	skipnc
  2320  064A  3E01               	addlw	1
  2321  064B  1903               	skipnz
  2322  064C  2E4E               	goto	u2803
  2323  064D  07B1               	addwf	___flmul@grs+3,f
  2324  064E                     u2803:
  2325  064E                     l2353:
  2326  064E  0821               	movf	___flmul@b+1,w
  2327  064F  00A8               	movwf	??___flmul
  2328  0650  0828               	movf	??___flmul,w
  2329  0651  00F0               	movwf	__Umul8_16@multiplicand
  2330  0652  0826               	movf	___flmul@a+2,w
  2331  0653  120A  158A  24CC  120A  118A  	fcall	__Umul8_16
  2332  0658  0871               	movf	?__Umul8_16+1,w
  2333  0659  1283               	bcf	3,5	;RP0=0, select bank0
  2334  065A  1303               	bcf	3,6	;RP1=0, select bank0
  2335  065B  00B9               	movwf	___flmul@temp+1
  2336  065C  0870               	movf	?__Umul8_16,w
  2337  065D  00B8               	movwf	___flmul@temp
  2338  065E  0838               	movf	___flmul@temp,w
  2339  065F  00A8               	movwf	??___flmul
  2340  0660  0839               	movf	___flmul@temp+1,w
  2341  0661  00A9               	movwf	??___flmul+1
  2342  0662  01AA               	clrf	??___flmul+2
  2343  0663  01AB               	clrf	??___flmul+3
  2344  0664  0828               	movf	??___flmul,w
  2345  0665  07B4               	addwf	___flmul@prod,f
  2346  0666  0829               	movf	??___flmul+1,w
  2347  0667  1103               	clrz
  2348  0668  1803               	skipnc
  2349  0669  3E01               	addlw	1
  2350  066A  1903               	skipnz
  2351  066B  2E6D               	goto	u2811
  2352  066C  07B5               	addwf	___flmul@prod+1,f
  2353  066D                     u2811:
  2354  066D  082A               	movf	??___flmul+2,w
  2355  066E  1103               	clrz
  2356  066F  1803               	skipnc
  2357  0670  3E01               	addlw	1
  2358  0671  1903               	skipnz
  2359  0672  2E74               	goto	u2812
  2360  0673  07B6               	addwf	___flmul@prod+2,f
  2361  0674                     u2812:
  2362  0674  082B               	movf	??___flmul+3,w
  2363  0675  1103               	clrz
  2364  0676  1803               	skipnc
  2365  0677  3E01               	addlw	1
  2366  0678  1903               	skipnz
  2367  0679  2E7B               	goto	u2813
  2368  067A  07B7               	addwf	___flmul@prod+3,f
  2369  067B                     u2813:
  2370  067B                     l2355:
  2371  067B  0822               	movf	___flmul@b+2,w
  2372  067C  00A8               	movwf	??___flmul
  2373  067D  0828               	movf	??___flmul,w
  2374  067E  00F0               	movwf	__Umul8_16@multiplicand
  2375  067F  0825               	movf	___flmul@a+1,w
  2376  0680  120A  158A  24CC  120A  118A  	fcall	__Umul8_16
  2377  0685  0871               	movf	?__Umul8_16+1,w
  2378  0686  1283               	bcf	3,5	;RP0=0, select bank0
  2379  0687  1303               	bcf	3,6	;RP1=0, select bank0
  2380  0688  00B9               	movwf	___flmul@temp+1
  2381  0689  0870               	movf	?__Umul8_16,w
  2382  068A  00B8               	movwf	___flmul@temp
  2383  068B                     l2357:
  2384  068B  0838               	movf	___flmul@temp,w
  2385  068C  00A8               	movwf	??___flmul
  2386  068D  0839               	movf	___flmul@temp+1,w
  2387  068E  00A9               	movwf	??___flmul+1
  2388  068F  01AA               	clrf	??___flmul+2
  2389  0690  01AB               	clrf	??___flmul+3
  2390  0691  0828               	movf	??___flmul,w
  2391  0692  07B4               	addwf	___flmul@prod,f
  2392  0693  0829               	movf	??___flmul+1,w
  2393  0694  1103               	clrz
  2394  0695  1803               	skipnc
  2395  0696  3E01               	addlw	1
  2396  0697  1903               	skipnz
  2397  0698  2E9A               	goto	u2821
  2398  0699  07B5               	addwf	___flmul@prod+1,f
  2399  069A                     u2821:
  2400  069A  082A               	movf	??___flmul+2,w
  2401  069B  1103               	clrz
  2402  069C  1803               	skipnc
  2403  069D  3E01               	addlw	1
  2404  069E  1903               	skipnz
  2405  069F  2EA1               	goto	u2822
  2406  06A0  07B6               	addwf	___flmul@prod+2,f
  2407  06A1                     u2822:
  2408  06A1  082B               	movf	??___flmul+3,w
  2409  06A2  1103               	clrz
  2410  06A3  1803               	skipnc
  2411  06A4  3E01               	addlw	1
  2412  06A5  1903               	skipnz
  2413  06A6  2EA8               	goto	u2823
  2414  06A7  07B7               	addwf	___flmul@prod+3,f
  2415  06A8                     u2823:
  2416  06A8  0822               	movf	___flmul@b+2,w
  2417  06A9  00A8               	movwf	??___flmul
  2418  06AA  0828               	movf	??___flmul,w
  2419  06AB  00F0               	movwf	__Umul8_16@multiplicand
  2420  06AC  0826               	movf	___flmul@a+2,w
  2421  06AD  120A  158A  24CC  120A  118A  	fcall	__Umul8_16
  2422  06B2  0871               	movf	?__Umul8_16+1,w
  2423  06B3  1283               	bcf	3,5	;RP0=0, select bank0
  2424  06B4  1303               	bcf	3,6	;RP1=0, select bank0
  2425  06B5  00B9               	movwf	___flmul@temp+1
  2426  06B6  0870               	movf	?__Umul8_16,w
  2427  06B7  00B8               	movwf	___flmul@temp
  2428  06B8                     l2359:
  2429  06B8  0838               	movf	___flmul@temp,w
  2430  06B9  00A8               	movwf	??___flmul
  2431  06BA  0839               	movf	___flmul@temp+1,w
  2432  06BB  00A9               	movwf	??___flmul+1
  2433  06BC  01AA               	clrf	??___flmul+2
  2434  06BD  01AB               	clrf	??___flmul+3
  2435  06BE  3008               	movlw	8
  2436  06BF                     u2835:
  2437  06BF  1003               	clrc
  2438  06C0  0DA8               	rlf	??___flmul,f
  2439  06C1  0DA9               	rlf	??___flmul+1,f
  2440  06C2  0DAA               	rlf	??___flmul+2,f
  2441  06C3  0DAB               	rlf	??___flmul+3,f
  2442  06C4                     u2830:
  2443  06C4  3EFF               	addlw	-1
  2444  06C5  1D03               	skipz
  2445  06C6  2EBF               	goto	u2835
  2446  06C7  0828               	movf	??___flmul,w
  2447  06C8  07B4               	addwf	___flmul@prod,f
  2448  06C9  0829               	movf	??___flmul+1,w
  2449  06CA  1103               	clrz
  2450  06CB  1803               	skipnc
  2451  06CC  3E01               	addlw	1
  2452  06CD  1903               	skipnz
  2453  06CE  2ED0               	goto	u2841
  2454  06CF  07B5               	addwf	___flmul@prod+1,f
  2455  06D0                     u2841:
  2456  06D0  082A               	movf	??___flmul+2,w
  2457  06D1  1103               	clrz
  2458  06D2  1803               	skipnc
  2459  06D3  3E01               	addlw	1
  2460  06D4  1903               	skipnz
  2461  06D5  2ED7               	goto	u2842
  2462  06D6  07B6               	addwf	___flmul@prod+2,f
  2463  06D7                     u2842:
  2464  06D7  082B               	movf	??___flmul+3,w
  2465  06D8  1103               	clrz
  2466  06D9  1803               	skipnc
  2467  06DA  3E01               	addlw	1
  2468  06DB  1903               	skipnz
  2469  06DC  2EDE               	goto	u2843
  2470  06DD  07B7               	addwf	___flmul@prod+3,f
  2471  06DE                     u2843:
  2472  06DE                     l2361:
  2473  06DE  082E               	movf	___flmul@grs,w
  2474  06DF  00A8               	movwf	??___flmul
  2475  06E0  082F               	movf	___flmul@grs+1,w
  2476  06E1  00A9               	movwf	??___flmul+1
  2477  06E2  0830               	movf	___flmul@grs+2,w
  2478  06E3  00AA               	movwf	??___flmul+2
  2479  06E4  0831               	movf	___flmul@grs+3,w
  2480  06E5  00AB               	movwf	??___flmul+3
  2481  06E6  3018               	movlw	24
  2482  06E7                     u2855:
  2483  06E7  1003               	clrc
  2484  06E8  0CAB               	rrf	??___flmul+3,f
  2485  06E9  0CAA               	rrf	??___flmul+2,f
  2486  06EA  0CA9               	rrf	??___flmul+1,f
  2487  06EB  0CA8               	rrf	??___flmul,f
  2488  06EC                     u2850:
  2489  06EC  3EFF               	addlw	-1
  2490  06ED  1D03               	skipz
  2491  06EE  2EE7               	goto	u2855
  2492  06EF  0828               	movf	??___flmul,w
  2493  06F0  07B4               	addwf	___flmul@prod,f
  2494  06F1  0829               	movf	??___flmul+1,w
  2495  06F2  1103               	clrz
  2496  06F3  1803               	skipnc
  2497  06F4  3E01               	addlw	1
  2498  06F5  1903               	skipnz
  2499  06F6  2EF8               	goto	u2861
  2500  06F7  07B5               	addwf	___flmul@prod+1,f
  2501  06F8                     u2861:
  2502  06F8  082A               	movf	??___flmul+2,w
  2503  06F9  1103               	clrz
  2504  06FA  1803               	skipnc
  2505  06FB  3E01               	addlw	1
  2506  06FC  1903               	skipnz
  2507  06FD  2EFF               	goto	u2862
  2508  06FE  07B6               	addwf	___flmul@prod+2,f
  2509  06FF                     u2862:
  2510  06FF  082B               	movf	??___flmul+3,w
  2511  0700  1103               	clrz
  2512  0701  1803               	skipnc
  2513  0702  3E01               	addlw	1
  2514  0703  1903               	skipnz
  2515  0704  2F06               	goto	u2863
  2516  0705  07B7               	addwf	___flmul@prod+3,f
  2517  0706                     u2863:
  2518  0706                     l2363:
  2519  0706  3008               	movlw	8
  2520  0707  00A8               	movwf	??___flmul
  2521  0708                     u2875:
  2522  0708  1003               	clrc
  2523  0709  0DAE               	rlf	___flmul@grs,f
  2524  070A  0DAF               	rlf	___flmul@grs+1,f
  2525  070B  0DB0               	rlf	___flmul@grs+2,f
  2526  070C  0DB1               	rlf	___flmul@grs+3,f
  2527  070D  0BA8               	decfsz	??___flmul,f
  2528  070E  2F08               	goto	u2875
  2529  070F                     l2365:
  2530  070F  0833               	movf	___flmul@bexp,w
  2531  0710  0732               	addwf	___flmul@aexp,w
  2532  0711  00A8               	movwf	??___flmul
  2533  0712  01A9               	clrf	??___flmul+1
  2534  0713  0DA9               	rlf	??___flmul+1,f
  2535  0714  0828               	movf	??___flmul,w
  2536  0715  3E82               	addlw	130
  2537  0716  00B8               	movwf	___flmul@temp
  2538  0717  0829               	movf	??___flmul+1,w
  2539  0718  1803               	skipnc
  2540  0719  3E01               	addlw	1
  2541  071A  3EFF               	addlw	255
  2542  071B  00B9               	movwf	___flmul@temp+1
  2543  071C  2F3A               	goto	l2377
  2544  071D                     l2367:
  2545  071D  3001               	movlw	1
  2546  071E  00A8               	movwf	??___flmul
  2547  071F                     u2885:
  2548  071F  1003               	clrc
  2549  0720  0DB4               	rlf	___flmul@prod,f
  2550  0721  0DB5               	rlf	___flmul@prod+1,f
  2551  0722  0DB6               	rlf	___flmul@prod+2,f
  2552  0723  0DB7               	rlf	___flmul@prod+3,f
  2553  0724  0BA8               	decfsz	??___flmul,f
  2554  0725  2F1F               	goto	u2885
  2555  0726                     l2369:
  2556  0726  1FB1               	btfss	___flmul@grs+3,7
  2557  0727  2F29               	goto	u2891
  2558  0728  2F2A               	goto	u2890
  2559  0729                     u2891:
  2560  0729  2F2B               	goto	l2373
  2561  072A                     u2890:
  2562  072A                     l2371:
  2563  072A  1434               	bsf	___flmul@prod,0
  2564  072B                     l2373:
  2565  072B  3001               	movlw	1
  2566  072C  00A8               	movwf	??___flmul
  2567  072D                     u2905:
  2568  072D  1003               	clrc
  2569  072E  0DAE               	rlf	___flmul@grs,f
  2570  072F  0DAF               	rlf	___flmul@grs+1,f
  2571  0730  0DB0               	rlf	___flmul@grs+2,f
  2572  0731  0DB1               	rlf	___flmul@grs+3,f
  2573  0732  0BA8               	decfsz	??___flmul,f
  2574  0733  2F2D               	goto	u2905
  2575  0734                     l2375:
  2576  0734  30FF               	movlw	255
  2577  0735  07B8               	addwf	___flmul@temp,f
  2578  0736  1803               	skipnc
  2579  0737  0AB9               	incf	___flmul@temp+1,f
  2580  0738  30FF               	movlw	255
  2581  0739  07B9               	addwf	___flmul@temp+1,f
  2582  073A                     l2377:
  2583  073A  1FB6               	btfss	___flmul@prod+2,7
  2584  073B  2F3D               	goto	u2911
  2585  073C  2F3E               	goto	u2910
  2586  073D                     u2911:
  2587  073D  2F1D               	goto	l2367
  2588  073E                     u2910:
  2589  073E                     l2379:
  2590  073E  01B2               	clrf	___flmul@aexp
  2591  073F                     l2381:
  2592  073F  1FB1               	btfss	___flmul@grs+3,7
  2593  0740  2F42               	goto	u2921
  2594  0741  2F43               	goto	u2920
  2595  0742                     u2921:
  2596  0742  2F5F               	goto	l2389
  2597  0743                     u2920:
  2598  0743                     l2383:
  2599  0743  30FF               	movlw	255
  2600  0744  052E               	andwf	___flmul@grs,w
  2601  0745  00A8               	movwf	??___flmul
  2602  0746  30FF               	movlw	255
  2603  0747  052F               	andwf	___flmul@grs+1,w
  2604  0748  00A9               	movwf	??___flmul+1
  2605  0749  30FF               	movlw	255
  2606  074A  0530               	andwf	___flmul@grs+2,w
  2607  074B  00AA               	movwf	??___flmul+2
  2608  074C  307F               	movlw	127
  2609  074D  0531               	andwf	___flmul@grs+3,w
  2610  074E  00AB               	movwf	??___flmul+3
  2611  074F  082B               	movf	??___flmul+3,w
  2612  0750  042A               	iorwf	??___flmul+2,w
  2613  0751  0429               	iorwf	??___flmul+1,w
  2614  0752  0428               	iorwf	??___flmul,w
  2615  0753  1903               	skipnz
  2616  0754  2F56               	goto	u2931
  2617  0755  2F57               	goto	u2930
  2618  0756                     u2931:
  2619  0756  2F5A               	goto	l777
  2620  0757                     u2930:
  2621  0757                     l2385:
  2622  0757  01B2               	clrf	___flmul@aexp
  2623  0758  0AB2               	incf	___flmul@aexp,f
  2624  0759  2F5F               	goto	l2389
  2625  075A                     l777:
  2626  075A  1C34               	btfss	___flmul@prod,0
  2627  075B  2F5D               	goto	u2941
  2628  075C  2F5E               	goto	u2940
  2629  075D                     u2941:
  2630  075D  2F5F               	goto	l2389
  2631  075E                     u2940:
  2632  075E  2F57               	goto	l2385
  2633  075F                     l2389:
  2634  075F  0832               	movf	___flmul@aexp,w
  2635  0760  1903               	btfsc	3,2
  2636  0761  2F63               	goto	u2951
  2637  0762  2F64               	goto	u2950
  2638  0763                     u2951:
  2639  0763  2F95               	goto	l2399
  2640  0764                     u2950:
  2641  0764                     l2391:
  2642  0764  3001               	movlw	1
  2643  0765  07B4               	addwf	___flmul@prod,f
  2644  0766  3000               	movlw	0
  2645  0767  1803               	skipnc
  2646  0768  3001               	movlw	1
  2647  0769  07B5               	addwf	___flmul@prod+1,f
  2648  076A  3000               	movlw	0
  2649  076B  1803               	skipnc
  2650  076C  3001               	movlw	1
  2651  076D  07B6               	addwf	___flmul@prod+2,f
  2652  076E  3000               	movlw	0
  2653  076F  1803               	skipnc
  2654  0770  3001               	movlw	1
  2655  0771  07B7               	addwf	___flmul@prod+3,f
  2656  0772                     l2393:
  2657  0772  1C37               	btfss	___flmul@prod+3,0
  2658  0773  2F75               	goto	u2961
  2659  0774  2F76               	goto	u2960
  2660  0775                     u2961:
  2661  0775  2F95               	goto	l2399
  2662  0776                     u2960:
  2663  0776                     l2395:
  2664  0776  0834               	movf	___flmul@prod,w
  2665  0777  00A8               	movwf	??___flmul
  2666  0778  0835               	movf	___flmul@prod+1,w
  2667  0779  00A9               	movwf	??___flmul+1
  2668  077A  0836               	movf	___flmul@prod+2,w
  2669  077B  00AA               	movwf	??___flmul+2
  2670  077C  0837               	movf	___flmul@prod+3,w
  2671  077D  00AB               	movwf	??___flmul+3
  2672  077E  3001               	movlw	1
  2673  077F  00AC               	movwf	??___flmul+4
  2674  0780                     u2975:
  2675  0780  0D2B               	rlf	??___flmul+3,w
  2676  0781  0CAB               	rrf	??___flmul+3,f
  2677  0782  0CAA               	rrf	??___flmul+2,f
  2678  0783  0CA9               	rrf	??___flmul+1,f
  2679  0784  0CA8               	rrf	??___flmul,f
  2680  0785                     u2970:
  2681  0785  0BAC               	decfsz	??___flmul+4,f
  2682  0786  2F80               	goto	u2975
  2683  0787  082B               	movf	??___flmul+3,w
  2684  0788  00B7               	movwf	___flmul@prod+3
  2685  0789  082A               	movf	??___flmul+2,w
  2686  078A  00B6               	movwf	___flmul@prod+2
  2687  078B  0829               	movf	??___flmul+1,w
  2688  078C  00B5               	movwf	___flmul@prod+1
  2689  078D  0828               	movf	??___flmul,w
  2690  078E  00B4               	movwf	___flmul@prod
  2691  078F                     l2397:
  2692  078F  3001               	movlw	1
  2693  0790  07B8               	addwf	___flmul@temp,f
  2694  0791  1803               	skipnc
  2695  0792  0AB9               	incf	___flmul@temp+1,f
  2696  0793  3000               	movlw	0
  2697  0794  07B9               	addwf	___flmul@temp+1,f
  2698  0795                     l2399:
  2699  0795  0839               	movf	___flmul@temp+1,w
  2700  0796  3A80               	xorlw	128
  2701  0797  00FF               	movwf	btemp+1
  2702  0798  3080               	movlw	128
  2703  0799  027F               	subwf	btemp+1,w
  2704  079A  1D03               	skipz
  2705  079B  2F9E               	goto	u2985
  2706  079C  30FF               	movlw	255
  2707  079D  0238               	subwf	___flmul@temp,w
  2708  079E                     u2985:
  2709  079E  1C03               	skipc
  2710  079F  2FA1               	goto	u2981
  2711  07A0  2FA2               	goto	u2980
  2712  07A1                     u2981:
  2713  07A1  2FAD               	goto	l2403
  2714  07A2                     u2980:
  2715  07A2                     l2401:
  2716  07A2  307F               	movlw	127
  2717  07A3  1283               	bcf	3,5	;RP0=0, select bank0
  2718  07A4  1303               	bcf	3,6	;RP1=0, select bank0
  2719  07A5  00B7               	movwf	___flmul@prod+3
  2720  07A6  3080               	movlw	128
  2721  07A7  00B6               	movwf	___flmul@prod+2
  2722  07A8  3000               	movlw	0
  2723  07A9  00B5               	movwf	___flmul@prod+1
  2724  07AA  3000               	movlw	0
  2725  07AB  00B4               	movwf	___flmul@prod
  2726  07AC  2FE2               	goto	l783
  2727  07AD                     l2403:
  2728  07AD  1283               	bcf	3,5	;RP0=0, select bank0
  2729  07AE  1303               	bcf	3,6	;RP1=0, select bank0
  2730  07AF  0839               	movf	___flmul@temp+1,w
  2731  07B0  3A80               	xorlw	128
  2732  07B1  00FF               	movwf	btemp+1
  2733  07B2  3080               	movlw	128
  2734  07B3  027F               	subwf	btemp+1,w
  2735  07B4  1D03               	skipz
  2736  07B5  2FB8               	goto	u2995
  2737  07B6  3001               	movlw	1
  2738  07B7  0238               	subwf	___flmul@temp,w
  2739  07B8                     u2995:
  2740  07B8  1803               	skipnc
  2741  07B9  2FBB               	goto	u2991
  2742  07BA  2FBC               	goto	u2990
  2743  07BB                     u2991:
  2744  07BB  2FC8               	goto	l2409
  2745  07BC                     u2990:
  2746  07BC                     l2405:
  2747  07BC  3000               	movlw	0
  2748  07BD  1283               	bcf	3,5	;RP0=0, select bank0
  2749  07BE  1303               	bcf	3,6	;RP1=0, select bank0
  2750  07BF  00B7               	movwf	___flmul@prod+3
  2751  07C0  3000               	movlw	0
  2752  07C1  00B6               	movwf	___flmul@prod+2
  2753  07C2  3000               	movlw	0
  2754  07C3  00B5               	movwf	___flmul@prod+1
  2755  07C4  3000               	movlw	0
  2756  07C5  00B4               	movwf	___flmul@prod
  2757  07C6                     l2407:
  2758  07C6  01AD               	clrf	___flmul@sign
  2759  07C7  2FE2               	goto	l783
  2760  07C8                     l2409:
  2761  07C8  1283               	bcf	3,5	;RP0=0, select bank0
  2762  07C9  1303               	bcf	3,6	;RP1=0, select bank0
  2763  07CA  0838               	movf	___flmul@temp,w
  2764  07CB  00A8               	movwf	??___flmul
  2765  07CC  0828               	movf	??___flmul,w
  2766  07CD  00B3               	movwf	___flmul@bexp
  2767  07CE  30FF               	movlw	255
  2768  07CF  05B4               	andwf	___flmul@prod,f
  2769  07D0  30FF               	movlw	255
  2770  07D1  05B5               	andwf	___flmul@prod+1,f
  2771  07D2  307F               	movlw	127
  2772  07D3  05B6               	andwf	___flmul@prod+2,f
  2773  07D4  3000               	movlw	0
  2774  07D5  05B7               	andwf	___flmul@prod+3,f
  2775  07D6                     l2411:
  2776  07D6  1C33               	btfss	___flmul@bexp,0
  2777  07D7  2FD9               	goto	u3001
  2778  07D8  2FDA               	goto	u3000
  2779  07D9                     u3001:
  2780  07D9  2FDB               	goto	l2415
  2781  07DA                     u3000:
  2782  07DA                     l2413:
  2783  07DA  17B6               	bsf	___flmul@prod+2,7
  2784  07DB                     l2415:
  2785  07DB  0833               	movf	___flmul@bexp,w
  2786  07DC  00A8               	movwf	??___flmul
  2787  07DD  1003               	clrc
  2788  07DE  0C28               	rrf	??___flmul,w
  2789  07DF  00A9               	movwf	??___flmul+1
  2790  07E0  0829               	movf	??___flmul+1,w
  2791  07E1  00B7               	movwf	___flmul@prod+3
  2792  07E2                     l783:
  2793  07E2  082D               	movf	___flmul@sign,w
  2794  07E3  00A8               	movwf	??___flmul
  2795  07E4  0828               	movf	??___flmul,w
  2796  07E5  04B7               	iorwf	___flmul@prod+3,f
  2797  07E6                     l2417:
  2798  07E6  0837               	movf	___flmul@prod+3,w
  2799  07E7  00A3               	movwf	?___flmul+3
  2800  07E8  0836               	movf	___flmul@prod+2,w
  2801  07E9  00A2               	movwf	?___flmul+2
  2802  07EA  0835               	movf	___flmul@prod+1,w
  2803  07EB  00A1               	movwf	?___flmul+1
  2804  07EC  0834               	movf	___flmul@prod,w
  2805  07ED  00A0               	movwf	?___flmul
  2806  07EE                     l771:
  2807  07EE  0008               	return
  2808  07EF                     __end_of___flmul:
  2809                           
  2810                           	psect	text5
  2811  0CCC                     __ptext5:	
  2812 ;; *************** function __Umul8_16 *****************
  2813 ;; Defined at:
  2814 ;;		line 4 in file "C:\Program Files\Microchip\xc8\v2.35\pic\sources\c90\common\Umul8_16.c"
  2815 ;; Parameters:    Size  Location     Type
  2816 ;;  multiplier      1    wreg     unsigned char 
  2817 ;;  multiplicand    1    0[COMMON] unsigned char 
  2818 ;; Auto vars:     Size  Location     Type
  2819 ;;  multiplier      1    8[COMMON] unsigned char 
  2820 ;;  word_mpld       2    6[COMMON] unsigned int 
  2821 ;;  product         2    4[COMMON] unsigned int 
  2822 ;; Return value:  Size  Location     Type
  2823 ;;                  2    0[COMMON] unsigned int 
  2824 ;; Registers used:
  2825 ;;		wreg, status,2, status,0
  2826 ;; Tracked objects:
  2827 ;;		On entry : 0/0
  2828 ;;		On exit  : 0/0
  2829 ;;		Unchanged: 0/0
  2830 ;; Data sizes:     COMMON   BANK0   BANK1   BANK3   BANK2
  2831 ;;      Params:         2       0       0       0       0
  2832 ;;      Locals:         5       0       0       0       0
  2833 ;;      Temps:          2       0       0       0       0
  2834 ;;      Totals:         9       0       0       0       0
  2835 ;;Total ram usage:        9 bytes
  2836 ;; Hardware stack levels used: 1
  2837 ;; This function calls:
  2838 ;;		Nothing
  2839 ;; This function is called by:
  2840 ;;		___flmul
  2841 ;; This function uses a non-reentrant model
  2842 ;;
  2843                           
  2844  0CCC                     __Umul8_16:	
  2845                           ;psect for function __Umul8_16
  2846                           
  2847                           
  2848                           ;incstack = 0
  2849                           ; Regs used in __Umul8_16: [wreg+status,2+status,0]
  2850                           ;__Umul8_16@multiplier stored from wreg
  2851  0CCC  00F8               	movwf	__Umul8_16@multiplier
  2852  0CCD                     l1917:
  2853  0CCD  01F4               	clrf	__Umul8_16@product
  2854  0CCE  01F5               	clrf	__Umul8_16@product+1
  2855  0CCF                     l1919:
  2856  0CCF  0870               	movf	__Umul8_16@multiplicand,w
  2857  0CD0  00F2               	movwf	??__Umul8_16
  2858  0CD1  01F3               	clrf	??__Umul8_16+1
  2859  0CD2  0872               	movf	??__Umul8_16,w
  2860  0CD3  00F6               	movwf	__Umul8_16@word_mpld
  2861  0CD4  0873               	movf	??__Umul8_16+1,w
  2862  0CD5  00F7               	movwf	__Umul8_16@word_mpld+1
  2863  0CD6                     l1921:
  2864  0CD6  1C78               	btfss	__Umul8_16@multiplier,0
  2865  0CD7  2CD9               	goto	u1901
  2866  0CD8  2CDA               	goto	u1900
  2867  0CD9                     u1901:
  2868  0CD9  2CE0               	goto	l790
  2869  0CDA                     u1900:
  2870  0CDA                     l1923:
  2871  0CDA  0876               	movf	__Umul8_16@word_mpld,w
  2872  0CDB  07F4               	addwf	__Umul8_16@product,f
  2873  0CDC  1803               	skipnc
  2874  0CDD  0AF5               	incf	__Umul8_16@product+1,f
  2875  0CDE  0877               	movf	__Umul8_16@word_mpld+1,w
  2876  0CDF  07F5               	addwf	__Umul8_16@product+1,f
  2877  0CE0                     l790:
  2878  0CE0  3001               	movlw	1
  2879  0CE1                     u1915:
  2880  0CE1  1003               	clrc
  2881  0CE2  0DF6               	rlf	__Umul8_16@word_mpld,f
  2882  0CE3  0DF7               	rlf	__Umul8_16@word_mpld+1,f
  2883  0CE4  3EFF               	addlw	-1
  2884  0CE5  1D03               	skipz
  2885  0CE6  2CE1               	goto	u1915
  2886  0CE7  1003               	clrc
  2887  0CE8  0CF8               	rrf	__Umul8_16@multiplier,f
  2888  0CE9                     l1925:
  2889  0CE9  0878               	movf	__Umul8_16@multiplier,w
  2890  0CEA  1D03               	btfss	3,2
  2891  0CEB  2CED               	goto	u1921
  2892  0CEC  2CEE               	goto	u1920
  2893  0CED                     u1921:
  2894  0CED  2CD6               	goto	l1921
  2895  0CEE                     u1920:
  2896  0CEE                     l1927:
  2897  0CEE  0875               	movf	__Umul8_16@product+1,w
  2898  0CEF  00F1               	movwf	?__Umul8_16+1
  2899  0CF0  0874               	movf	__Umul8_16@product,w
  2900  0CF1  00F0               	movwf	?__Umul8_16
  2901  0CF2                     l792:
  2902  0CF2  0008               	return
  2903  0CF3                     __end_of__Umul8_16:
  2904                           
  2905                           	psect	text6
  2906  0206                     __ptext6:	
  2907 ;; *************** function ___fladd *****************
  2908 ;; Defined at:
  2909 ;;		line 10 in file "C:\Program Files\Microchip\xc8\v2.35\pic\sources\c90\common\sprcadd.c"
  2910 ;; Parameters:    Size  Location     Type
  2911 ;;  b               4   26[BANK0 ] unsigned int 
  2912 ;;  a               4   30[BANK0 ] unsigned int 
  2913 ;; Auto vars:     Size  Location     Type
  2914 ;;  grs             1   45[BANK0 ] unsigned char 
  2915 ;;  bexp            1   44[BANK0 ] unsigned char 
  2916 ;;  aexp            1   43[BANK0 ] unsigned char 
  2917 ;;  signs           1   42[BANK0 ] unsigned char 
  2918 ;; Return value:  Size  Location     Type
  2919 ;;                  4   26[BANK0 ] unsigned char 
  2920 ;; Registers used:
  2921 ;;		wreg, status,2, status,0, btemp+1
  2922 ;; Tracked objects:
  2923 ;;		On entry : 0/0
  2924 ;;		On exit  : 0/0
  2925 ;;		Unchanged: 0/0
  2926 ;; Data sizes:     COMMON   BANK0   BANK1   BANK3   BANK2
  2927 ;;      Params:         0       8       0       0       0
  2928 ;;      Locals:         0       4       0       0       0
  2929 ;;      Temps:          0       8       0       0       0
  2930 ;;      Totals:         0      20       0       0       0
  2931 ;;Total ram usage:       20 bytes
  2932 ;; Hardware stack levels used: 1
  2933 ;; This function calls:
  2934 ;;		Nothing
  2935 ;; This function is called by:
  2936 ;;		_Update_Celsius
  2937 ;;		_Update_Farenheit
  2938 ;; This function uses a non-reentrant model
  2939 ;;
  2940                           
  2941  0206                     ___fladd:	
  2942                           ;psect for function ___fladd
  2943                           
  2944  0206                     l2087:	
  2945                           ;incstack = 0
  2946                           ; Regs used in ___fladd: [wreg+status,2+status,0+btemp+1]
  2947                           
  2948  0206  1283               	bcf	3,5	;RP0=0, select bank0
  2949  0207  1303               	bcf	3,6	;RP1=0, select bank0
  2950  0208  083D               	movf	___fladd@b+3,w
  2951  0209  3980               	andlw	128
  2952  020A  00C2               	movwf	??___fladd
  2953  020B  0842               	movf	??___fladd,w
  2954  020C  00CA               	movwf	___fladd@signs
  2955  020D                     l2089:
  2956  020D  083D               	movf	___fladd@b+3,w
  2957  020E  00C2               	movwf	??___fladd
  2958  020F  0742               	addwf	??___fladd,w
  2959  0210  00C3               	movwf	??___fladd+1
  2960  0211  0843               	movf	??___fladd+1,w
  2961  0212  00CC               	movwf	___fladd@bexp
  2962  0213                     l2091:
  2963  0213  1FBC               	btfss	___fladd@b+2,7
  2964  0214  2A16               	goto	u2181
  2965  0215  2A17               	goto	u2180
  2966  0216                     u2181:
  2967  0216  2A18               	goto	l2095
  2968  0217                     u2180:
  2969  0217                     l2093:
  2970  0217  144C               	bsf	___fladd@bexp,0
  2971  0218                     l2095:
  2972  0218  084C               	movf	___fladd@bexp,w
  2973  0219  1903               	btfsc	3,2
  2974  021A  2A1C               	goto	u2191
  2975  021B  2A1D               	goto	u2190
  2976  021C                     u2191:
  2977  021C  2A2D               	goto	l2105
  2978  021D                     u2190:
  2979  021D                     l2097:
  2980  021D  0A4C               	incf	___fladd@bexp,w
  2981  021E  1D03               	btfss	3,2
  2982  021F  2A21               	goto	u2201
  2983  0220  2A22               	goto	u2200
  2984  0221                     u2201:
  2985  0221  2A2A               	goto	l2101
  2986  0222                     u2200:
  2987  0222                     l2099:
  2988  0222  3000               	movlw	0
  2989  0223  00BD               	movwf	___fladd@b+3
  2990  0224  3000               	movlw	0
  2991  0225  00BC               	movwf	___fladd@b+2
  2992  0226  3000               	movlw	0
  2993  0227  00BB               	movwf	___fladd@b+1
  2994  0228  3000               	movlw	0
  2995  0229  00BA               	movwf	___fladd@b
  2996  022A                     l2101:
  2997  022A  17BC               	bsf	___fladd@b+2,7
  2998  022B                     l2103:
  2999  022B  01BD               	clrf	___fladd@b+3
  3000  022C  2A35               	goto	l2107
  3001  022D                     l2105:
  3002  022D  3000               	movlw	0
  3003  022E  00BD               	movwf	___fladd@b+3
  3004  022F  3000               	movlw	0
  3005  0230  00BC               	movwf	___fladd@b+2
  3006  0231  3000               	movlw	0
  3007  0232  00BB               	movwf	___fladd@b+1
  3008  0233  3000               	movlw	0
  3009  0234  00BA               	movwf	___fladd@b
  3010  0235                     l2107:
  3011  0235  0841               	movf	___fladd@a+3,w
  3012  0236  3980               	andlw	128
  3013  0237  00C2               	movwf	??___fladd
  3014  0238  0842               	movf	??___fladd,w
  3015  0239  00CB               	movwf	___fladd@aexp
  3016  023A                     l2109:
  3017  023A  084B               	movf	___fladd@aexp,w
  3018  023B  064A               	xorwf	___fladd@signs,w
  3019  023C  1903               	skipnz
  3020  023D  2A3F               	goto	u2211
  3021  023E  2A40               	goto	u2210
  3022  023F                     u2211:
  3023  023F  2A41               	goto	l2113
  3024  0240                     u2210:
  3025  0240                     l2111:
  3026  0240  174A               	bsf	___fladd@signs,6
  3027  0241                     l2113:
  3028  0241  0841               	movf	___fladd@a+3,w
  3029  0242  00C2               	movwf	??___fladd
  3030  0243  0742               	addwf	??___fladd,w
  3031  0244  00C3               	movwf	??___fladd+1
  3032  0245  0843               	movf	??___fladd+1,w
  3033  0246  00CB               	movwf	___fladd@aexp
  3034  0247                     l2115:
  3035  0247  1FC0               	btfss	___fladd@a+2,7
  3036  0248  2A4A               	goto	u2221
  3037  0249  2A4B               	goto	u2220
  3038  024A                     u2221:
  3039  024A  2A4C               	goto	l2119
  3040  024B                     u2220:
  3041  024B                     l2117:
  3042  024B  144B               	bsf	___fladd@aexp,0
  3043  024C                     l2119:
  3044  024C  084B               	movf	___fladd@aexp,w
  3045  024D  1903               	btfsc	3,2
  3046  024E  2A50               	goto	u2231
  3047  024F  2A51               	goto	u2230
  3048  0250                     u2231:
  3049  0250  2A61               	goto	l2129
  3050  0251                     u2230:
  3051  0251                     l2121:
  3052  0251  0A4B               	incf	___fladd@aexp,w
  3053  0252  1D03               	btfss	3,2
  3054  0253  2A55               	goto	u2241
  3055  0254  2A56               	goto	u2240
  3056  0255                     u2241:
  3057  0255  2A5E               	goto	l2125
  3058  0256                     u2240:
  3059  0256                     l2123:
  3060  0256  3000               	movlw	0
  3061  0257  00C1               	movwf	___fladd@a+3
  3062  0258  3000               	movlw	0
  3063  0259  00C0               	movwf	___fladd@a+2
  3064  025A  3000               	movlw	0
  3065  025B  00BF               	movwf	___fladd@a+1
  3066  025C  3000               	movlw	0
  3067  025D  00BE               	movwf	___fladd@a
  3068  025E                     l2125:
  3069  025E  17C0               	bsf	___fladd@a+2,7
  3070  025F                     l2127:
  3071  025F  01C1               	clrf	___fladd@a+3
  3072  0260  2A69               	goto	l675
  3073  0261                     l2129:
  3074  0261  3000               	movlw	0
  3075  0262  00C1               	movwf	___fladd@a+3
  3076  0263  3000               	movlw	0
  3077  0264  00C0               	movwf	___fladd@a+2
  3078  0265  3000               	movlw	0
  3079  0266  00BF               	movwf	___fladd@a+1
  3080  0267  3000               	movlw	0
  3081  0268  00BE               	movwf	___fladd@a
  3082  0269                     l675:
  3083  0269  084C               	movf	___fladd@bexp,w
  3084  026A  024B               	subwf	___fladd@aexp,w
  3085  026B  1803               	skipnc
  3086  026C  2A6E               	goto	u2251
  3087  026D  2A6F               	goto	u2250
  3088  026E                     u2251:
  3089  026E  2AB3               	goto	l2165
  3090  026F                     u2250:
  3091  026F                     l2131:
  3092  026F  1F4A               	btfss	___fladd@signs,6
  3093  0270  2A72               	goto	u2261
  3094  0271  2A73               	goto	u2260
  3095  0272                     u2261:
  3096  0272  2A77               	goto	l2135
  3097  0273                     u2260:
  3098  0273                     l2133:
  3099  0273  3080               	movlw	128
  3100  0274  00C2               	movwf	??___fladd
  3101  0275  0842               	movf	??___fladd,w
  3102  0276  06CA               	xorwf	___fladd@signs,f
  3103  0277                     l2135:
  3104  0277  084C               	movf	___fladd@bexp,w
  3105  0278  00C2               	movwf	??___fladd
  3106  0279  0842               	movf	??___fladd,w
  3107  027A  00CD               	movwf	___fladd@grs
  3108  027B                     l2137:
  3109  027B  084B               	movf	___fladd@aexp,w
  3110  027C  00C2               	movwf	??___fladd
  3111  027D  0842               	movf	??___fladd,w
  3112  027E  00CC               	movwf	___fladd@bexp
  3113  027F                     l2139:
  3114  027F  084D               	movf	___fladd@grs,w
  3115  0280  00C2               	movwf	??___fladd
  3116  0281  0842               	movf	??___fladd,w
  3117  0282  00CB               	movwf	___fladd@aexp
  3118  0283                     l2141:
  3119  0283  083A               	movf	___fladd@b,w
  3120  0284  00C2               	movwf	??___fladd
  3121  0285  0842               	movf	??___fladd,w
  3122  0286  00CD               	movwf	___fladd@grs
  3123  0287                     l2143:
  3124  0287  083E               	movf	___fladd@a,w
  3125  0288  00C2               	movwf	??___fladd
  3126  0289  0842               	movf	??___fladd,w
  3127  028A  00BA               	movwf	___fladd@b
  3128  028B                     l2145:
  3129  028B  084D               	movf	___fladd@grs,w
  3130  028C  00C2               	movwf	??___fladd
  3131  028D  0842               	movf	??___fladd,w
  3132  028E  00BE               	movwf	___fladd@a
  3133  028F                     l2147:
  3134  028F  083B               	movf	___fladd@b+1,w
  3135  0290  00C2               	movwf	??___fladd
  3136  0291  0842               	movf	??___fladd,w
  3137  0292  00CD               	movwf	___fladd@grs
  3138  0293                     l2149:
  3139  0293  083F               	movf	___fladd@a+1,w
  3140  0294  00C2               	movwf	??___fladd
  3141  0295  0842               	movf	??___fladd,w
  3142  0296  00BB               	movwf	___fladd@b+1
  3143  0297                     l2151:
  3144  0297  084D               	movf	___fladd@grs,w
  3145  0298  00C2               	movwf	??___fladd
  3146  0299  0842               	movf	??___fladd,w
  3147  029A  00BF               	movwf	___fladd@a+1
  3148  029B                     l2153:
  3149  029B  083C               	movf	___fladd@b+2,w
  3150  029C  00C2               	movwf	??___fladd
  3151  029D  0842               	movf	??___fladd,w
  3152  029E  00CD               	movwf	___fladd@grs
  3153  029F                     l2155:
  3154  029F  0840               	movf	___fladd@a+2,w
  3155  02A0  00C2               	movwf	??___fladd
  3156  02A1  0842               	movf	??___fladd,w
  3157  02A2  00BC               	movwf	___fladd@b+2
  3158  02A3                     l2157:
  3159  02A3  084D               	movf	___fladd@grs,w
  3160  02A4  00C2               	movwf	??___fladd
  3161  02A5  0842               	movf	??___fladd,w
  3162  02A6  00C0               	movwf	___fladd@a+2
  3163  02A7                     l2159:
  3164  02A7  083D               	movf	___fladd@b+3,w
  3165  02A8  00C2               	movwf	??___fladd
  3166  02A9  0842               	movf	??___fladd,w
  3167  02AA  00CD               	movwf	___fladd@grs
  3168  02AB                     l2161:
  3169  02AB  0841               	movf	___fladd@a+3,w
  3170  02AC  00C2               	movwf	??___fladd
  3171  02AD  0842               	movf	??___fladd,w
  3172  02AE  00BD               	movwf	___fladd@b+3
  3173  02AF                     l2163:
  3174  02AF  084D               	movf	___fladd@grs,w
  3175  02B0  00C2               	movwf	??___fladd
  3176  02B1  0842               	movf	??___fladd,w
  3177  02B2  00C1               	movwf	___fladd@a+3
  3178  02B3                     l2165:
  3179  02B3  01CD               	clrf	___fladd@grs
  3180  02B4                     l2167:
  3181  02B4  084B               	movf	___fladd@aexp,w
  3182  02B5  00C2               	movwf	??___fladd
  3183  02B6  01C3               	clrf	??___fladd+1
  3184  02B7  0843               	movf	??___fladd+1,w
  3185  02B8  00C5               	movwf	??___fladd+3
  3186  02B9  084C               	movf	___fladd@bexp,w
  3187  02BA  0242               	subwf	??___fladd,w
  3188  02BB  00C4               	movwf	??___fladd+2
  3189  02BC  1C03               	skipc
  3190  02BD  03C5               	decf	??___fladd+3,f
  3191  02BE  0845               	movf	??___fladd+3,w
  3192  02BF  3A80               	xorlw	128
  3193  02C0  00FF               	movwf	btemp+1
  3194  02C1  3080               	movlw	128
  3195  02C2  027F               	subwf	btemp+1,w
  3196  02C3  1D03               	skipz
  3197  02C4  2AC7               	goto	u2275
  3198  02C5  301A               	movlw	26
  3199  02C6  0244               	subwf	??___fladd+2,w
  3200  02C7                     u2275:
  3201  02C7  1C03               	skipc
  3202  02C8  2ACA               	goto	u2271
  3203  02C9  2ACB               	goto	u2270
  3204  02CA                     u2271:
  3205  02CA  2B08               	goto	l2183
  3206  02CB                     u2270:
  3207  02CB                     l2169:
  3208  02CB  1283               	bcf	3,5	;RP0=0, select bank0
  3209  02CC  1303               	bcf	3,6	;RP1=0, select bank0
  3210  02CD  083D               	movf	___fladd@b+3,w
  3211  02CE  043C               	iorwf	___fladd@b+2,w
  3212  02CF  043B               	iorwf	___fladd@b+1,w
  3213  02D0  043A               	iorwf	___fladd@b,w
  3214  02D1  1D03               	skipz
  3215  02D2  2AD4               	goto	u2281
  3216  02D3  2AD6               	goto	u2280
  3217  02D4                     u2281:
  3218  02D4  3001               	movlw	1
  3219  02D5  2AD7               	goto	u2290
  3220  02D6                     u2280:
  3221  02D6  3000               	movlw	0
  3222  02D7                     u2290:
  3223  02D7  00C2               	movwf	??___fladd
  3224  02D8  0842               	movf	??___fladd,w
  3225  02D9  00CD               	movwf	___fladd@grs
  3226  02DA  3000               	movlw	0
  3227  02DB  00BD               	movwf	___fladd@b+3
  3228  02DC  3000               	movlw	0
  3229  02DD  00BC               	movwf	___fladd@b+2
  3230  02DE  3000               	movlw	0
  3231  02DF  00BB               	movwf	___fladd@b+1
  3232  02E0  3000               	movlw	0
  3233  02E1  00BA               	movwf	___fladd@b
  3234  02E2  084B               	movf	___fladd@aexp,w
  3235  02E3  00C2               	movwf	??___fladd
  3236  02E4  0842               	movf	??___fladd,w
  3237  02E5  00CC               	movwf	___fladd@bexp
  3238  02E6  2B10               	goto	l679
  3239  02E7                     l681:
  3240  02E7  1C4D               	btfss	___fladd@grs,0
  3241  02E8  2AEA               	goto	u2301
  3242  02E9  2AEB               	goto	u2300
  3243  02EA                     u2301:
  3244  02EA  2AF4               	goto	l2173
  3245  02EB                     u2300:
  3246  02EB                     l2171:
  3247  02EB  084D               	movf	___fladd@grs,w
  3248  02EC  00C2               	movwf	??___fladd
  3249  02ED  1003               	clrc
  3250  02EE  0C42               	rrf	??___fladd,w
  3251  02EF  3801               	iorlw	1
  3252  02F0  00C3               	movwf	??___fladd+1
  3253  02F1  0843               	movf	??___fladd+1,w
  3254  02F2  00CD               	movwf	___fladd@grs
  3255  02F3  2AF6               	goto	l2175
  3256  02F4                     l2173:
  3257  02F4  1003               	clrc
  3258  02F5  0CCD               	rrf	___fladd@grs,f
  3259  02F6                     l2175:
  3260  02F6  1C3A               	btfss	___fladd@b,0
  3261  02F7  2AF9               	goto	u2311
  3262  02F8  2AFA               	goto	u2310
  3263  02F9                     u2311:
  3264  02F9  2AFB               	goto	l2179
  3265  02FA                     u2310:
  3266  02FA                     l2177:
  3267  02FA  17CD               	bsf	___fladd@grs,7
  3268  02FB                     l2179:
  3269  02FB  3001               	movlw	1
  3270  02FC  00C2               	movwf	??___fladd
  3271  02FD                     u2325:
  3272  02FD  0D3D               	rlf	___fladd@b+3,w
  3273  02FE  0CBD               	rrf	___fladd@b+3,f
  3274  02FF  0CBC               	rrf	___fladd@b+2,f
  3275  0300  0CBB               	rrf	___fladd@b+1,f
  3276  0301  0CBA               	rrf	___fladd@b,f
  3277  0302  0BC2               	decfsz	??___fladd& (0+127),f
  3278  0303  2AFD               	goto	u2325
  3279  0304                     l2181:
  3280  0304  3001               	movlw	1
  3281  0305  00C2               	movwf	??___fladd
  3282  0306  0842               	movf	??___fladd,w
  3283  0307  07CC               	addwf	___fladd@bexp,f
  3284  0308                     l2183:
  3285  0308  1283               	bcf	3,5	;RP0=0, select bank0
  3286  0309  1303               	bcf	3,6	;RP1=0, select bank0
  3287  030A  084B               	movf	___fladd@aexp,w
  3288  030B  024C               	subwf	___fladd@bexp,w
  3289  030C  1C03               	skipc
  3290  030D  2B0F               	goto	u2331
  3291  030E  2B10               	goto	u2330
  3292  030F                     u2331:
  3293  030F  2AE7               	goto	l681
  3294  0310                     u2330:
  3295  0310                     l679:
  3296  0310  1B4A               	btfsc	___fladd@signs,6
  3297  0311  2B13               	goto	u2341
  3298  0312  2B14               	goto	u2340
  3299  0313                     u2341:
  3300  0313  2B5F               	goto	l2209
  3301  0314                     u2340:
  3302  0314                     l2185:
  3303  0314  084C               	movf	___fladd@bexp,w
  3304  0315  1D03               	btfss	3,2
  3305  0316  2B18               	goto	u2351
  3306  0317  2B19               	goto	u2350
  3307  0318                     u2351:
  3308  0318  2B22               	goto	l2191
  3309  0319                     u2350:
  3310  0319                     l2187:
  3311  0319  3000               	movlw	0
  3312  031A  00BD               	movwf	?___fladd+3
  3313  031B  3000               	movlw	0
  3314  031C  00BC               	movwf	?___fladd+2
  3315  031D  3000               	movlw	0
  3316  031E  00BB               	movwf	?___fladd+1
  3317  031F  3000               	movlw	0
  3318  0320  00BA               	movwf	?___fladd
  3319  0321  2C8D               	goto	l688
  3320  0322                     l2191:
  3321  0322  083E               	movf	___fladd@a,w
  3322  0323  07BA               	addwf	___fladd@b,f
  3323  0324  083F               	movf	___fladd@a+1,w
  3324  0325  1103               	clrz
  3325  0326  1803               	skipnc
  3326  0327  3E01               	addlw	1
  3327  0328  1903               	skipnz
  3328  0329  2B2B               	goto	u2361
  3329  032A  07BB               	addwf	___fladd@b+1,f
  3330  032B                     u2361:
  3331  032B  0840               	movf	___fladd@a+2,w
  3332  032C  1103               	clrz
  3333  032D  1803               	skipnc
  3334  032E  3E01               	addlw	1
  3335  032F  1903               	skipnz
  3336  0330  2B32               	goto	u2362
  3337  0331  07BC               	addwf	___fladd@b+2,f
  3338  0332                     u2362:
  3339  0332  0841               	movf	___fladd@a+3,w
  3340  0333  1103               	clrz
  3341  0334  1803               	skipnc
  3342  0335  3E01               	addlw	1
  3343  0336  1903               	skipnz
  3344  0337  2B39               	goto	u2363
  3345  0338  07BD               	addwf	___fladd@b+3,f
  3346  0339                     u2363:
  3347  0339                     l2193:
  3348  0339  1C3D               	btfss	___fladd@b+3,0
  3349  033A  2B3C               	goto	u2371
  3350  033B  2B3D               	goto	u2370
  3351  033C                     u2371:
  3352  033C  2C13               	goto	l2243
  3353  033D                     u2370:
  3354  033D                     l2195:
  3355  033D  1C4D               	btfss	___fladd@grs,0
  3356  033E  2B40               	goto	u2381
  3357  033F  2B41               	goto	u2380
  3358  0340                     u2381:
  3359  0340  2B4A               	goto	l2199
  3360  0341                     u2380:
  3361  0341                     l2197:
  3362  0341  084D               	movf	___fladd@grs,w
  3363  0342  00C2               	movwf	??___fladd
  3364  0343  1003               	clrc
  3365  0344  0C42               	rrf	??___fladd,w
  3366  0345  3801               	iorlw	1
  3367  0346  00C3               	movwf	??___fladd+1
  3368  0347  0843               	movf	??___fladd+1,w
  3369  0348  00CD               	movwf	___fladd@grs
  3370  0349  2B4C               	goto	l2201
  3371  034A                     l2199:
  3372  034A  1003               	clrc
  3373  034B  0CCD               	rrf	___fladd@grs,f
  3374  034C                     l2201:
  3375  034C  1C3A               	btfss	___fladd@b,0
  3376  034D  2B4F               	goto	u2391
  3377  034E  2B50               	goto	u2390
  3378  034F                     u2391:
  3379  034F  2B51               	goto	l2205
  3380  0350                     u2390:
  3381  0350                     l2203:
  3382  0350  17CD               	bsf	___fladd@grs,7
  3383  0351                     l2205:
  3384  0351  3001               	movlw	1
  3385  0352  00C2               	movwf	??___fladd
  3386  0353                     u2405:
  3387  0353  0D3D               	rlf	___fladd@b+3,w
  3388  0354  0CBD               	rrf	___fladd@b+3,f
  3389  0355  0CBC               	rrf	___fladd@b+2,f
  3390  0356  0CBB               	rrf	___fladd@b+1,f
  3391  0357  0CBA               	rrf	___fladd@b,f
  3392  0358  0BC2               	decfsz	??___fladd& (0+127),f
  3393  0359  2B53               	goto	u2405
  3394  035A                     l2207:
  3395  035A  3001               	movlw	1
  3396  035B  00C2               	movwf	??___fladd
  3397  035C  0842               	movf	??___fladd,w
  3398  035D  07CC               	addwf	___fladd@bexp,f
  3399  035E  2C13               	goto	l2243
  3400  035F                     l2209:
  3401  035F  083D               	movf	___fladd@b+3,w
  3402  0360  3A80               	xorlw	128
  3403  0361  00FF               	movwf	btemp+1
  3404  0362  0841               	movf	___fladd@a+3,w
  3405  0363  3A80               	xorlw	128
  3406  0364  027F               	subwf	btemp+1,w
  3407  0365  1D03               	skipz
  3408  0366  2B71               	goto	u2413
  3409  0367  0840               	movf	___fladd@a+2,w
  3410  0368  023C               	subwf	___fladd@b+2,w
  3411  0369  1D03               	skipz
  3412  036A  2B71               	goto	u2413
  3413  036B  083F               	movf	___fladd@a+1,w
  3414  036C  023B               	subwf	___fladd@b+1,w
  3415  036D  1D03               	skipz
  3416  036E  2B71               	goto	u2413
  3417  036F  083E               	movf	___fladd@a,w
  3418  0370  023A               	subwf	___fladd@b,w
  3419  0371                     u2413:
  3420  0371  1803               	skipnc
  3421  0372  2B74               	goto	u2411
  3422  0373  2B75               	goto	u2410
  3423  0374                     u2411:
  3424  0374  2BCD               	goto	l2219
  3425  0375                     u2410:
  3426  0375                     l2211:
  3427  0375  30FF               	movlw	255
  3428  0376  00C2               	movwf	??___fladd
  3429  0377  30FF               	movlw	255
  3430  0378  00C3               	movwf	??___fladd+1
  3431  0379  30FF               	movlw	255
  3432  037A  00C4               	movwf	??___fladd+2
  3433  037B  30FF               	movlw	255
  3434  037C  00C5               	movwf	??___fladd+3
  3435  037D  083E               	movf	___fladd@a,w
  3436  037E  00C6               	movwf	??___fladd+4
  3437  037F  083F               	movf	___fladd@a+1,w
  3438  0380  00C7               	movwf	??___fladd+5
  3439  0381  0840               	movf	___fladd@a+2,w
  3440  0382  00C8               	movwf	??___fladd+6
  3441  0383  0841               	movf	___fladd@a+3,w
  3442  0384  00C9               	movwf	??___fladd+7
  3443  0385  083A               	movf	___fladd@b,w
  3444  0386  02C6               	subwf	??___fladd+4,f
  3445  0387  083B               	movf	___fladd@b+1,w
  3446  0388  1C03               	skipc
  3447  0389  0F3B               	incfsz	___fladd@b+1,w
  3448  038A  2B8C               	goto	u2421
  3449  038B  2B8D               	goto	u2422
  3450  038C                     u2421:
  3451  038C  02C7               	subwf	??___fladd+5,f
  3452  038D                     u2422:
  3453  038D  083C               	movf	___fladd@b+2,w
  3454  038E  1C03               	skipc
  3455  038F  0F3C               	incfsz	___fladd@b+2,w
  3456  0390  2B92               	goto	u2423
  3457  0391  2B93               	goto	u2424
  3458  0392                     u2423:
  3459  0392  02C8               	subwf	??___fladd+6,f
  3460  0393                     u2424:
  3461  0393  083D               	movf	___fladd@b+3,w
  3462  0394  1C03               	skipc
  3463  0395  0F3D               	incfsz	___fladd@b+3,w
  3464  0396  2B98               	goto	u2425
  3465  0397  2B99               	goto	u2426
  3466  0398                     u2425:
  3467  0398  02C9               	subwf	??___fladd+7,f
  3468  0399                     u2426:
  3469  0399  0846               	movf	??___fladd+4,w
  3470  039A  07C2               	addwf	??___fladd,f
  3471  039B  0847               	movf	??___fladd+5,w
  3472  039C  1803               	skipnc
  3473  039D  0F47               	incfsz	??___fladd+5,w
  3474  039E  2BA0               	goto	u2430
  3475  039F  2BA1               	goto	u2431
  3476  03A0                     u2430:
  3477  03A0  07C3               	addwf	??___fladd+1,f
  3478  03A1                     u2431:
  3479  03A1  0848               	movf	??___fladd+6,w
  3480  03A2  1803               	skipnc
  3481  03A3  0F48               	incfsz	??___fladd+6,w
  3482  03A4  2BA6               	goto	u2432
  3483  03A5  2BA7               	goto	u2433
  3484  03A6                     u2432:
  3485  03A6  07C4               	addwf	??___fladd+2,f
  3486  03A7                     u2433:
  3487  03A7  0849               	movf	??___fladd+7,w
  3488  03A8  1803               	skipnc
  3489  03A9  0A49               	incf	??___fladd+7,w
  3490  03AA  07C5               	addwf	??___fladd+3,f
  3491  03AB  0845               	movf	??___fladd+3,w
  3492  03AC  00BD               	movwf	___fladd@b+3
  3493  03AD  0844               	movf	??___fladd+2,w
  3494  03AE  00BC               	movwf	___fladd@b+2
  3495  03AF  0843               	movf	??___fladd+1,w
  3496  03B0  00BB               	movwf	___fladd@b+1
  3497  03B1  0842               	movf	??___fladd,w
  3498  03B2  00BA               	movwf	___fladd@b
  3499  03B3                     l2213:
  3500  03B3  3080               	movlw	128
  3501  03B4  00C2               	movwf	??___fladd
  3502  03B5  0842               	movf	??___fladd,w
  3503  03B6  06CA               	xorwf	___fladd@signs,f
  3504  03B7  09CD               	comf	___fladd@grs,f
  3505  03B8  0ACD               	incf	___fladd@grs,f
  3506  03B9                     l2215:
  3507  03B9  084D               	movf	___fladd@grs,w
  3508  03BA  1D03               	btfss	3,2
  3509  03BB  2BBD               	goto	u2441
  3510  03BC  2BBE               	goto	u2440
  3511  03BD                     u2441:
  3512  03BD  2BDB               	goto	l696
  3513  03BE                     u2440:
  3514  03BE                     l2217:
  3515  03BE  3001               	movlw	1
  3516  03BF  07BA               	addwf	___fladd@b,f
  3517  03C0  3000               	movlw	0
  3518  03C1  1803               	skipnc
  3519  03C2  3001               	movlw	1
  3520  03C3  07BB               	addwf	___fladd@b+1,f
  3521  03C4  3000               	movlw	0
  3522  03C5  1803               	skipnc
  3523  03C6  3001               	movlw	1
  3524  03C7  07BC               	addwf	___fladd@b+2,f
  3525  03C8  3000               	movlw	0
  3526  03C9  1803               	skipnc
  3527  03CA  3001               	movlw	1
  3528  03CB  07BD               	addwf	___fladd@b+3,f
  3529  03CC  2BDB               	goto	l696
  3530  03CD                     l2219:
  3531  03CD  083E               	movf	___fladd@a,w
  3532  03CE  02BA               	subwf	___fladd@b,f
  3533  03CF  083F               	movf	___fladd@a+1,w
  3534  03D0  1C03               	skipc
  3535  03D1  0F3F               	incfsz	___fladd@a+1,w
  3536  03D2  02BB               	subwf	___fladd@b+1,f
  3537  03D3  0840               	movf	___fladd@a+2,w
  3538  03D4  1C03               	skipc
  3539  03D5  0F40               	incfsz	___fladd@a+2,w
  3540  03D6  02BC               	subwf	___fladd@b+2,f
  3541  03D7  0841               	movf	___fladd@a+3,w
  3542  03D8  1C03               	skipc
  3543  03D9  0F41               	incfsz	___fladd@a+3,w
  3544  03DA  02BD               	subwf	___fladd@b+3,f
  3545  03DB                     l696:
  3546  03DB  083D               	movf	___fladd@b+3,w
  3547  03DC  043C               	iorwf	___fladd@b+2,w
  3548  03DD  043B               	iorwf	___fladd@b+1,w
  3549  03DE  043A               	iorwf	___fladd@b,w
  3550  03DF  1D03               	skipz
  3551  03E0  2BE2               	goto	u2451
  3552  03E1  2BE3               	goto	u2450
  3553  03E2                     u2451:
  3554  03E2  2C0F               	goto	l2241
  3555  03E3                     u2450:
  3556  03E3                     l2221:
  3557  03E3  084D               	movf	___fladd@grs,w
  3558  03E4  1D03               	btfss	3,2
  3559  03E5  2BE7               	goto	u2461
  3560  03E6  2BE8               	goto	u2460
  3561  03E7                     u2461:
  3562  03E7  2C0F               	goto	l2241
  3563  03E8                     u2460:
  3564  03E8                     l2223:
  3565  03E8  3000               	movlw	0
  3566  03E9  00BD               	movwf	?___fladd+3
  3567  03EA  3000               	movlw	0
  3568  03EB  00BC               	movwf	?___fladd+2
  3569  03EC  3000               	movlw	0
  3570  03ED  00BB               	movwf	?___fladd+1
  3571  03EE  3000               	movlw	0
  3572  03EF  00BA               	movwf	?___fladd
  3573  03F0  2C8D               	goto	l688
  3574  03F1                     l2227:
  3575  03F1  3001               	movlw	1
  3576  03F2  00C2               	movwf	??___fladd
  3577  03F3                     u2475:
  3578  03F3  1003               	clrc
  3579  03F4  0DBA               	rlf	___fladd@b,f
  3580  03F5  0DBB               	rlf	___fladd@b+1,f
  3581  03F6  0DBC               	rlf	___fladd@b+2,f
  3582  03F7  0DBD               	rlf	___fladd@b+3,f
  3583  03F8  0BC2               	decfsz	??___fladd,f
  3584  03F9  2BF3               	goto	u2475
  3585  03FA                     l2229:
  3586  03FA  1FCD               	btfss	___fladd@grs,7
  3587  03FB  2BFD               	goto	u2481
  3588  03FC  2BFE               	goto	u2480
  3589  03FD                     u2481:
  3590  03FD  2BFF               	goto	l700
  3591  03FE                     u2480:
  3592  03FE                     l2231:
  3593  03FE  143A               	bsf	___fladd@b,0
  3594  03FF                     l700:
  3595  03FF  1C4D               	btfss	___fladd@grs,0
  3596  0400  2C02               	goto	u2491
  3597  0401  2C03               	goto	u2490
  3598  0402                     u2491:
  3599  0402  2C06               	goto	l2235
  3600  0403                     u2490:
  3601  0403                     l2233:
  3602  0403  1403               	setc
  3603  0404  0DCD               	rlf	___fladd@grs,f
  3604  0405  2C08               	goto	l2237
  3605  0406                     l2235:
  3606  0406  1003               	clrc
  3607  0407  0DCD               	rlf	___fladd@grs,f
  3608  0408                     l2237:
  3609  0408  084C               	movf	___fladd@bexp,w
  3610  0409  1903               	btfsc	3,2
  3611  040A  2C0C               	goto	u2501
  3612  040B  2C0D               	goto	u2500
  3613  040C                     u2501:
  3614  040C  2C0F               	goto	l2241
  3615  040D                     u2500:
  3616  040D                     l2239:
  3617  040D  3001               	movlw	1
  3618  040E  02CC               	subwf	___fladd@bexp,f
  3619  040F                     l2241:
  3620  040F  1FBC               	btfss	___fladd@b+2,7
  3621  0410  2C12               	goto	u2511
  3622  0411  2C13               	goto	u2510
  3623  0412                     u2511:
  3624  0412  2BF1               	goto	l2227
  3625  0413                     u2510:
  3626  0413                     l2243:
  3627  0413  01CB               	clrf	___fladd@aexp
  3628  0414                     l2245:
  3629  0414  1FCD               	btfss	___fladd@grs,7
  3630  0415  2C17               	goto	u2521
  3631  0416  2C18               	goto	u2520
  3632  0417                     u2521:
  3633  0417  2C26               	goto	l2253
  3634  0418                     u2520:
  3635  0418                     l2247:
  3636  0418  084D               	movf	___fladd@grs,w
  3637  0419  397F               	andlw	127
  3638  041A  1903               	btfsc	3,2
  3639  041B  2C1D               	goto	u2531
  3640  041C  2C1E               	goto	u2530
  3641  041D                     u2531:
  3642  041D  2C21               	goto	l706
  3643  041E                     u2530:
  3644  041E                     l2249:
  3645  041E  01CB               	clrf	___fladd@aexp
  3646  041F  0ACB               	incf	___fladd@aexp,f
  3647  0420  2C26               	goto	l2253
  3648  0421                     l706:
  3649  0421  1C3A               	btfss	___fladd@b,0
  3650  0422  2C24               	goto	u2541
  3651  0423  2C25               	goto	u2540
  3652  0424                     u2541:
  3653  0424  2C26               	goto	l2253
  3654  0425                     u2540:
  3655  0425  2C1E               	goto	l2249
  3656  0426                     l2253:
  3657  0426  084B               	movf	___fladd@aexp,w
  3658  0427  1903               	btfsc	3,2
  3659  0428  2C2A               	goto	u2551
  3660  0429  2C2B               	goto	u2550
  3661  042A                     u2551:
  3662  042A  2C5F               	goto	l709
  3663  042B                     u2550:
  3664  042B                     l2255:
  3665  042B  3001               	movlw	1
  3666  042C  07BA               	addwf	___fladd@b,f
  3667  042D  3000               	movlw	0
  3668  042E  1803               	skipnc
  3669  042F  3001               	movlw	1
  3670  0430  07BB               	addwf	___fladd@b+1,f
  3671  0431  3000               	movlw	0
  3672  0432  1803               	skipnc
  3673  0433  3001               	movlw	1
  3674  0434  07BC               	addwf	___fladd@b+2,f
  3675  0435  3000               	movlw	0
  3676  0436  1803               	skipnc
  3677  0437  3001               	movlw	1
  3678  0438  07BD               	addwf	___fladd@b+3,f
  3679  0439                     l2257:
  3680  0439  1C3D               	btfss	___fladd@b+3,0
  3681  043A  2C3C               	goto	u2561
  3682  043B  2C3D               	goto	u2560
  3683  043C                     u2561:
  3684  043C  2C5F               	goto	l709
  3685  043D                     u2560:
  3686  043D                     l2259:
  3687  043D  083A               	movf	___fladd@b,w
  3688  043E  00C2               	movwf	??___fladd
  3689  043F  083B               	movf	___fladd@b+1,w
  3690  0440  00C3               	movwf	??___fladd+1
  3691  0441  083C               	movf	___fladd@b+2,w
  3692  0442  00C4               	movwf	??___fladd+2
  3693  0443  083D               	movf	___fladd@b+3,w
  3694  0444  00C5               	movwf	??___fladd+3
  3695  0445  3001               	movlw	1
  3696  0446  00C6               	movwf	??___fladd+4
  3697  0447                     u2575:
  3698  0447  0D45               	rlf	??___fladd+3,w
  3699  0448  0CC5               	rrf	??___fladd+3,f
  3700  0449  0CC4               	rrf	??___fladd+2,f
  3701  044A  0CC3               	rrf	??___fladd+1,f
  3702  044B  0CC2               	rrf	??___fladd,f
  3703  044C                     u2570:
  3704  044C  0BC6               	decfsz	??___fladd+4,f
  3705  044D  2C47               	goto	u2575
  3706  044E  0845               	movf	??___fladd+3,w
  3707  044F  00BD               	movwf	___fladd@b+3
  3708  0450  0844               	movf	??___fladd+2,w
  3709  0451  00BC               	movwf	___fladd@b+2
  3710  0452  0843               	movf	??___fladd+1,w
  3711  0453  00BB               	movwf	___fladd@b+1
  3712  0454  0842               	movf	??___fladd,w
  3713  0455  00BA               	movwf	___fladd@b
  3714  0456  0A4C               	incf	___fladd@bexp,w
  3715  0457  1903               	btfsc	3,2
  3716  0458  2C5A               	goto	u2581
  3717  0459  2C5B               	goto	u2580
  3718  045A                     u2581:
  3719  045A  2C5F               	goto	l709
  3720  045B                     u2580:
  3721  045B                     l2261:
  3722  045B  3001               	movlw	1
  3723  045C  00C2               	movwf	??___fladd
  3724  045D  0842               	movf	??___fladd,w
  3725  045E  07CC               	addwf	___fladd@bexp,f
  3726  045F                     l709:
  3727  045F  0A4C               	incf	___fladd@bexp,w
  3728  0460  1903               	btfsc	3,2
  3729  0461  2C63               	goto	u2591
  3730  0462  2C64               	goto	u2590
  3731  0463                     u2591:
  3732  0463  2C69               	goto	l2265
  3733  0464                     u2590:
  3734  0464                     l2263:
  3735  0464  084C               	movf	___fladd@bexp,w
  3736  0465  1D03               	btfss	3,2
  3737  0466  2C68               	goto	u2601
  3738  0467  2C69               	goto	u2600
  3739  0468                     u2601:
  3740  0468  2C77               	goto	l2271
  3741  0469                     u2600:
  3742  0469                     l2265:
  3743  0469  3000               	movlw	0
  3744  046A  00BD               	movwf	___fladd@b+3
  3745  046B  3000               	movlw	0
  3746  046C  00BC               	movwf	___fladd@b+2
  3747  046D  3000               	movlw	0
  3748  046E  00BB               	movwf	___fladd@b+1
  3749  046F  3000               	movlw	0
  3750  0470  00BA               	movwf	___fladd@b
  3751  0471                     l2267:
  3752  0471  084C               	movf	___fladd@bexp,w
  3753  0472  1D03               	btfss	3,2
  3754  0473  2C75               	goto	u2611
  3755  0474  2C76               	goto	u2610
  3756  0475                     u2611:
  3757  0475  2C77               	goto	l2271
  3758  0476                     u2610:
  3759  0476                     l2269:
  3760  0476  01CA               	clrf	___fladd@signs
  3761  0477                     l2271:
  3762  0477  1C4C               	btfss	___fladd@bexp,0
  3763  0478  2C7A               	goto	u2621
  3764  0479  2C7B               	goto	u2620
  3765  047A                     u2621:
  3766  047A  2C7D               	goto	l2275
  3767  047B                     u2620:
  3768  047B                     l2273:
  3769  047B  17BC               	bsf	___fladd@b+2,7
  3770  047C  2C81               	goto	l717
  3771  047D                     l2275:
  3772  047D  307F               	movlw	127
  3773  047E  00C2               	movwf	??___fladd
  3774  047F  0842               	movf	??___fladd,w
  3775  0480  05BC               	andwf	___fladd@b+2,f
  3776  0481                     l717:
  3777  0481  084C               	movf	___fladd@bexp,w
  3778  0482  00C2               	movwf	??___fladd
  3779  0483  1003               	clrc
  3780  0484  0C42               	rrf	??___fladd,w
  3781  0485  00C3               	movwf	??___fladd+1
  3782  0486  0843               	movf	??___fladd+1,w
  3783  0487  00BD               	movwf	___fladd@b+3
  3784  0488                     l2277:
  3785  0488  1FCA               	btfss	___fladd@signs,7
  3786  0489  2C8B               	goto	u2631
  3787  048A  2C8C               	goto	u2630
  3788  048B                     u2631:
  3789  048B  2C8D               	goto	l718
  3790  048C                     u2630:
  3791  048C                     l2279:
  3792  048C  17BD               	bsf	___fladd@b+3,7
  3793  048D                     l718:
  3794  048D                     l688:
  3795  048D  0008               	return
  3796  048E                     __end_of___fladd:
  3797                           
  3798                           	psect	text7
  3799  0EBF                     __ptext7:	
  3800 ;; *************** function _LCD_Init *****************
  3801 ;; Defined at:
  3802 ;;		line 27 in file "LCD.c"
  3803 ;; Parameters:    Size  Location     Type
  3804 ;;		None
  3805 ;; Auto vars:     Size  Location     Type
  3806 ;;		None
  3807 ;; Return value:  Size  Location     Type
  3808 ;;                  1    wreg      void 
  3809 ;; Registers used:
  3810 ;;		wreg, status,2, status,0, pclath, cstack
  3811 ;; Tracked objects:
  3812 ;;		On entry : 0/0
  3813 ;;		On exit  : 0/0
  3814 ;;		Unchanged: 0/0
  3815 ;; Data sizes:     COMMON   BANK0   BANK1   BANK3   BANK2
  3816 ;;      Params:         0       0       0       0       0
  3817 ;;      Locals:         0       0       0       0       0
  3818 ;;      Temps:          2       0       0       0       0
  3819 ;;      Totals:         2       0       0       0       0
  3820 ;;Total ram usage:        2 bytes
  3821 ;; Hardware stack levels used: 1
  3822 ;; Hardware stack levels required when called: 6
  3823 ;; This function calls:
  3824 ;;		_IO_Expander_Write
  3825 ;;		_LCD_CMD
  3826 ;; This function is called by:
  3827 ;;		_main
  3828 ;; This function uses a non-reentrant model
  3829 ;;
  3830                           
  3831  0EBF                     _LCD_Init:	
  3832                           ;psect for function _LCD_Init
  3833                           
  3834  0EBF                     l2479:	
  3835                           ;incstack = 0
  3836                           ; Regs used in _LCD_Init: [wreg+status,2+status,0+pclath+cstack]
  3837                           
  3838                           
  3839                           ;LCD.c: 29:   IO_Expander_Write(0x00);
  3840  0EBF  3000               	movlw	0
  3841  0EC0  120A  158A  2404  120A  158A  	fcall	_IO_Expander_Write
  3842  0EC5                     l2481:
  3843                           
  3844                           ;LCD.c: 30:   _delay((unsigned long)((30)*(8000000/4000.0)));
  3845  0EC5  304E               	movlw	78
  3846  0EC6  00F8               	movwf	??_LCD_Init+1
  3847  0EC7  30EB               	movlw	235
  3848  0EC8  00F7               	movwf	??_LCD_Init
  3849  0EC9                     u3267:
  3850  0EC9  0BF7               	decfsz	??_LCD_Init,f
  3851  0ECA  2EC9               	goto	u3267
  3852  0ECB  0BF8               	decfsz	??_LCD_Init+1,f
  3853  0ECC  2EC9               	goto	u3267
  3854  0ECD                     l2483:
  3855                           
  3856                           ;LCD.c: 31:   LCD_CMD(0x03);
  3857  0ECD  3003               	movlw	3
  3858  0ECE  120A  158A  244D  120A  158A  	fcall	_LCD_CMD
  3859                           
  3860                           ;LCD.c: 32:   _delay((unsigned long)((5)*(8000000/4000.0)));
  3861  0ED3  300D               	movlw	13
  3862  0ED4  00F8               	movwf	??_LCD_Init+1
  3863  0ED5  30FB               	movlw	251
  3864  0ED6  00F7               	movwf	??_LCD_Init
  3865  0ED7                     u3277:
  3866  0ED7  0BF7               	decfsz	??_LCD_Init,f
  3867  0ED8  2ED7               	goto	u3277
  3868  0ED9  0BF8               	decfsz	??_LCD_Init+1,f
  3869  0EDA  2ED7               	goto	u3277
  3870  0EDB  2EDC               	nop2
  3871  0EDC                     l2485:
  3872                           
  3873                           ;LCD.c: 33:   LCD_CMD(0x03);
  3874  0EDC  3003               	movlw	3
  3875  0EDD  120A  158A  244D  120A  158A  	fcall	_LCD_CMD
  3876  0EE2                     l2487:
  3877                           
  3878                           ;LCD.c: 34:   _delay((unsigned long)((5)*(8000000/4000.0)));
  3879  0EE2  300D               	movlw	13
  3880  0EE3  00F8               	movwf	??_LCD_Init+1
  3881  0EE4  30FB               	movlw	251
  3882  0EE5  00F7               	movwf	??_LCD_Init
  3883  0EE6                     u3287:
  3884  0EE6  0BF7               	decfsz	??_LCD_Init,f
  3885  0EE7  2EE6               	goto	u3287
  3886  0EE8  0BF8               	decfsz	??_LCD_Init+1,f
  3887  0EE9  2EE6               	goto	u3287
  3888  0EEA  2EEB               	nop2
  3889                           
  3890                           ;LCD.c: 35:   LCD_CMD(0x03);
  3891  0EEB  3003               	movlw	3
  3892  0EEC  120A  158A  244D  120A  158A  	fcall	_LCD_CMD
  3893  0EF1                     l2489:
  3894                           
  3895                           ;LCD.c: 36:   _delay((unsigned long)((5)*(8000000/4000.0)));
  3896  0EF1  300D               	movlw	13
  3897  0EF2  00F8               	movwf	??_LCD_Init+1
  3898  0EF3  30FB               	movlw	251
  3899  0EF4  00F7               	movwf	??_LCD_Init
  3900  0EF5                     u3297:
  3901  0EF5  0BF7               	decfsz	??_LCD_Init,f
  3902  0EF6  2EF5               	goto	u3297
  3903  0EF7  0BF8               	decfsz	??_LCD_Init+1,f
  3904  0EF8  2EF5               	goto	u3297
  3905  0EF9  2EFA               	nop2
  3906  0EFA                     l2491:
  3907                           
  3908                           ;LCD.c: 37:   LCD_CMD(0x02);
  3909  0EFA  3002               	movlw	2
  3910  0EFB  120A  158A  244D  120A  158A  	fcall	_LCD_CMD
  3911                           
  3912                           ;LCD.c: 38:   _delay((unsigned long)((5)*(8000000/4000.0)));
  3913  0F00  300D               	movlw	13
  3914  0F01  00F8               	movwf	??_LCD_Init+1
  3915  0F02  30FB               	movlw	251
  3916  0F03  00F7               	movwf	??_LCD_Init
  3917  0F04                     u3307:
  3918  0F04  0BF7               	decfsz	??_LCD_Init,f
  3919  0F05  2F04               	goto	u3307
  3920  0F06  0BF8               	decfsz	??_LCD_Init+1,f
  3921  0F07  2F04               	goto	u3307
  3922  0F08  2F09               	nop2
  3923  0F09                     l2493:
  3924                           
  3925                           ;LCD.c: 39:   LCD_CMD(0x20 | (2 << 2));
  3926  0F09  3028               	movlw	40
  3927  0F0A  120A  158A  244D  120A  158A  	fcall	_LCD_CMD
  3928  0F0F                     l2495:
  3929                           
  3930                           ;LCD.c: 40:   _delay((unsigned long)((50)*(8000000/4000.0)));
  3931  0F0F  3082               	movlw	130
  3932  0F10  00F8               	movwf	??_LCD_Init+1
  3933  0F11  30DD               	movlw	221
  3934  0F12  00F7               	movwf	??_LCD_Init
  3935  0F13                     u3317:
  3936  0F13  0BF7               	decfsz	??_LCD_Init,f
  3937  0F14  2F13               	goto	u3317
  3938  0F15  0BF8               	decfsz	??_LCD_Init+1,f
  3939  0F16  2F13               	goto	u3317
  3940  0F17  2F18               	nop2
  3941                           
  3942                           ;LCD.c: 41:   LCD_CMD(0x0C);
  3943  0F18  300C               	movlw	12
  3944  0F19  120A  158A  244D  120A  158A  	fcall	_LCD_CMD
  3945  0F1E                     l2497:
  3946                           
  3947                           ;LCD.c: 42:   _delay((unsigned long)((50)*(8000000/4000.0)));
  3948  0F1E  3082               	movlw	130
  3949  0F1F  00F8               	movwf	??_LCD_Init+1
  3950  0F20  30DD               	movlw	221
  3951  0F21  00F7               	movwf	??_LCD_Init
  3952  0F22                     u3327:
  3953  0F22  0BF7               	decfsz	??_LCD_Init,f
  3954  0F23  2F22               	goto	u3327
  3955  0F24  0BF8               	decfsz	??_LCD_Init+1,f
  3956  0F25  2F22               	goto	u3327
  3957  0F26  2F27               	nop2
  3958  0F27                     l2499:
  3959                           
  3960                           ;LCD.c: 43:   LCD_CMD(0x01);
  3961  0F27  3001               	movlw	1
  3962  0F28  120A  158A  244D  120A  158A  	fcall	_LCD_CMD
  3963                           
  3964                           ;LCD.c: 44:   _delay((unsigned long)((50)*(8000000/4000.0)));
  3965  0F2D  3082               	movlw	130
  3966  0F2E  00F8               	movwf	??_LCD_Init+1
  3967  0F2F  30DD               	movlw	221
  3968  0F30  00F7               	movwf	??_LCD_Init
  3969  0F31                     u3337:
  3970  0F31  0BF7               	decfsz	??_LCD_Init,f
  3971  0F32  2F31               	goto	u3337
  3972  0F33  0BF8               	decfsz	??_LCD_Init+1,f
  3973  0F34  2F31               	goto	u3337
  3974  0F35  2F36               	nop2
  3975  0F36                     l2501:
  3976                           
  3977                           ;LCD.c: 45:   LCD_CMD(0x04 | 0x02);
  3978  0F36  3006               	movlw	6
  3979  0F37  120A  158A  244D  120A  158A  	fcall	_LCD_CMD
  3980  0F3C                     l2503:
  3981                           
  3982                           ;LCD.c: 46:   _delay((unsigned long)((50)*(8000000/4000.0)));
  3983  0F3C  3082               	movlw	130
  3984  0F3D  00F8               	movwf	??_LCD_Init+1
  3985  0F3E  30DD               	movlw	221
  3986  0F3F  00F7               	movwf	??_LCD_Init
  3987  0F40                     u3347:
  3988  0F40  0BF7               	decfsz	??_LCD_Init,f
  3989  0F41  2F40               	goto	u3347
  3990  0F42  0BF8               	decfsz	??_LCD_Init+1,f
  3991  0F43  2F40               	goto	u3347
  3992  0F44  2F45               	nop2
  3993  0F45                     l189:
  3994  0F45  0008               	return
  3995  0F46                     __end_of_LCD_Init:
  3996                           
  3997                           	psect	text8
  3998  0BF0                     __ptext8:	
  3999 ;; *************** function _I2C_Init *****************
  4000 ;; Defined at:
  4001 ;;		line 27 in file "I2C_Master.c"
  4002 ;; Parameters:    Size  Location     Type
  4003 ;;		None
  4004 ;; Auto vars:     Size  Location     Type
  4005 ;;		None
  4006 ;; Return value:  Size  Location     Type
  4007 ;;                  1    wreg      void 
  4008 ;; Registers used:
  4009 ;;		wreg, status,2
  4010 ;; Tracked objects:
  4011 ;;		On entry : 0/0
  4012 ;;		On exit  : 0/0
  4013 ;;		Unchanged: 0/0
  4014 ;; Data sizes:     COMMON   BANK0   BANK1   BANK3   BANK2
  4015 ;;      Params:         0       0       0       0       0
  4016 ;;      Locals:         0       0       0       0       0
  4017 ;;      Temps:          0       0       0       0       0
  4018 ;;      Totals:         0       0       0       0       0
  4019 ;;Total ram usage:        0 bytes
  4020 ;; Hardware stack levels used: 1
  4021 ;; This function calls:
  4022 ;;		Nothing
  4023 ;; This function is called by:
  4024 ;;		_main
  4025 ;; This function uses a non-reentrant model
  4026 ;;
  4027                           
  4028  0BF0                     _I2C_Init:	
  4029                           ;psect for function _I2C_Init
  4030                           
  4031  0BF0                     l1575:	
  4032                           ;incstack = 0
  4033                           ; Regs used in _I2C_Init: [wreg+status,2]
  4034                           
  4035                           
  4036                           ;I2C_Master.c: 29:     TRISB0=1;
  4037  0BF0  1683               	bsf	3,5	;RP0=1, select bank1
  4038  0BF1  1303               	bcf	3,6	;RP1=0, select bank1
  4039  0BF2  1406               	bsf	6,0	;volatile
  4040                           
  4041                           ;I2C_Master.c: 30:  TRISB1=1;
  4042  0BF3  1486               	bsf	6,1	;volatile
  4043  0BF4                     l1577:
  4044                           
  4045                           ;I2C_Master.c: 31:  SSPSTAT=80;
  4046  0BF4  3050               	movlw	80
  4047  0BF5  0094               	movwf	20	;volatile
  4048                           
  4049                           ;I2C_Master.c: 32:     SSPCON=0x28;
  4050  0BF6  3028               	movlw	40
  4051  0BF7  1283               	bcf	3,5	;RP0=0, select bank0
  4052  0BF8  1303               	bcf	3,6	;RP1=0, select bank0
  4053  0BF9  0094               	movwf	20	;volatile
  4054  0BFA                     l1579:
  4055                           
  4056                           ;I2C_Master.c: 34:  SSPCON2=0;
  4057  0BFA  1683               	bsf	3,5	;RP0=1, select bank1
  4058  0BFB  1303               	bcf	3,6	;RP1=0, select bank1
  4059  0BFC  0191               	clrf	17	;volatile
  4060  0BFD                     l1581:
  4061                           
  4062                           ;I2C_Master.c: 35:     SSPADD=((8000000/(4*100000))-1);
  4063  0BFD  3013               	movlw	19
  4064  0BFE  0093               	movwf	19	;volatile
  4065  0BFF                     l1583:
  4066                           
  4067                           ;I2C_Master.c: 36:     SSPIE=1;
  4068  0BFF  158C               	bsf	12,3	;volatile
  4069  0C00                     l1585:
  4070                           
  4071                           ;I2C_Master.c: 37:     SSPIF=0;
  4072  0C00  1283               	bcf	3,5	;RP0=0, select bank0
  4073  0C01  1303               	bcf	3,6	;RP1=0, select bank0
  4074  0C02  118C               	bcf	12,3	;volatile
  4075  0C03                     l106:
  4076  0C03  0008               	return
  4077  0C04                     __end_of_I2C_Init:
  4078                           
  4079                           	psect	text9
  4080  0DF3                     __ptext9:	
  4081 ;; *************** function _Display *****************
  4082 ;; Defined at:
  4083 ;;		line 17 in file "newmain.c"
  4084 ;; Parameters:    Size  Location     Type
  4085 ;;		None
  4086 ;; Auto vars:     Size  Location     Type
  4087 ;;  buffer2        16   34[BANK0 ] unsigned char [16]
  4088 ;;  buffer1        16   18[BANK0 ] unsigned char [16]
  4089 ;; Return value:  Size  Location     Type
  4090 ;;                  1    wreg      void 
  4091 ;; Registers used:
  4092 ;;		wreg, fsr0l, fsr0h, status,2, status,0, btemp+1, pclath, cstack
  4093 ;; Tracked objects:
  4094 ;;		On entry : 0/0
  4095 ;;		On exit  : 0/0
  4096 ;;		Unchanged: 0/0
  4097 ;; Data sizes:     COMMON   BANK0   BANK1   BANK3   BANK2
  4098 ;;      Params:         0       0       0       0       0
  4099 ;;      Locals:         0      32       0       0       0
  4100 ;;      Temps:          0       3       0       0       0
  4101 ;;      Totals:         0      35       0       0       0
  4102 ;;Total ram usage:       35 bytes
  4103 ;; Hardware stack levels used: 1
  4104 ;; Hardware stack levels required when called: 7
  4105 ;; This function calls:
  4106 ;;		_LCD_Clear
  4107 ;;		_LCD_Set_Cursor
  4108 ;;		_LCD_Write_String
  4109 ;;		_sprintf
  4110 ;; This function is called by:
  4111 ;;		_main
  4112 ;; This function uses a non-reentrant model
  4113 ;;
  4114                           
  4115  0DF3                     _Display:	
  4116                           ;psect for function _Display
  4117                           
  4118  0DF3                     l2465:	
  4119                           ;incstack = 0
  4120                           ; Regs used in _Display: [wreg-fsr0h+status,2+status,0+btemp+1+pclath+cstack]
  4121                           
  4122                           
  4123                           ;newmain.c: 19:     char buffer1[16], buffer2[16];;newmain.c: 20:     sprintf(buffer1, "
      +                          Temp:%3d*C", temperature);
  4124  0DF3  300B               	movlw	(low ((STR_1-__stringbase)| (0+32768)))& (0+255)
  4125  0DF4  1283               	bcf	3,5	;RP0=0, select bank0
  4126  0DF5  1303               	bcf	3,6	;RP1=0, select bank0
  4127  0DF6  00AF               	movwf	??_Display
  4128  0DF7  082F               	movf	??_Display,w
  4129  0DF8  00A0               	movwf	sprintf@f
  4130  0DF9  0860               	movf	_temperature+1,w
  4131  0DFA  00A2               	movwf	?_sprintf+2
  4132  0DFB  085F               	movf	_temperature,w
  4133  0DFC  00A1               	movwf	?_sprintf+1
  4134  0DFD  3032               	movlw	(low (Display@buffer1| 0))& (0+255)
  4135  0DFE  120A  118A  2080  120A  158A  	fcall	_sprintf
  4136                           
  4137                           ;newmain.c: 21:     sprintf(buffer2, "Temp:%3d*F", temperature);
  4138  0E03  3016               	movlw	(low ((STR_2-__stringbase)| (0+32768)))& (0+255)
  4139  0E04  1283               	bcf	3,5	;RP0=0, select bank0
  4140  0E05  1303               	bcf	3,6	;RP1=0, select bank0
  4141  0E06  00AF               	movwf	??_Display
  4142  0E07  082F               	movf	??_Display,w
  4143  0E08  00A0               	movwf	sprintf@f
  4144  0E09  0860               	movf	_temperature+1,w
  4145  0E0A  00A2               	movwf	?_sprintf+2
  4146  0E0B  085F               	movf	_temperature,w
  4147  0E0C  00A1               	movwf	?_sprintf+1
  4148  0E0D  3042               	movlw	(low (Display@buffer2| 0))& (0+255)
  4149  0E0E  120A  118A  2080  120A  158A  	fcall	_sprintf
  4150  0E13                     l2467:
  4151                           
  4152                           ;newmain.c: 22:     LCD_Clear();
  4153  0E13  120A  158A  23BE  120A  158A  	fcall	_LCD_Clear
  4154  0E18                     l2469:
  4155                           
  4156                           ;newmain.c: 23:     _delay((unsigned long)((10)*(8000000/4000.0)));
  4157  0E18  301A               	movlw	26
  4158  0E19  1283               	bcf	3,5	;RP0=0, select bank0
  4159  0E1A  1303               	bcf	3,6	;RP1=0, select bank0
  4160  0E1B  00B0               	movwf	??_Display+1
  4161  0E1C  30F7               	movlw	247
  4162  0E1D  00AF               	movwf	??_Display
  4163  0E1E                     u3357:
  4164  0E1E  0BAF               	decfsz	??_Display,f
  4165  0E1F  2E1E               	goto	u3357
  4166  0E20  0BB0               	decfsz	??_Display+1,f
  4167  0E21  2E1E               	goto	u3357
  4168  0E22  2E23               	nop2
  4169  0E23                     l2471:
  4170                           
  4171                           ;newmain.c: 24:     LCD_Write_String(buffer1);
  4172  0E23  3032               	movlw	(low (Display@buffer1| 0))& (0+255)
  4173  0E24  120A  158A  2486  120A  158A  	fcall	_LCD_Write_String
  4174  0E29                     l2473:
  4175                           
  4176                           ;newmain.c: 25:     LCD_Set_Cursor(2,0);
  4177  0E29  01F7               	clrf	LCD_Set_Cursor@COL
  4178  0E2A  3002               	movlw	2
  4179  0E2B  120A  158A  24F3  120A  158A  	fcall	_LCD_Set_Cursor
  4180  0E30                     l2475:
  4181                           
  4182                           ;newmain.c: 26:     LCD_Write_String(buffer2);
  4183  0E30  3042               	movlw	(low (Display@buffer2| 0))& (0+255)
  4184  0E31  120A  158A  2486  120A  158A  	fcall	_LCD_Write_String
  4185  0E36                     l2477:
  4186                           
  4187                           ;newmain.c: 27:     _delay((unsigned long)((100)*(8000000/4000.0)));
  4188  0E36  3002               	movlw	2
  4189  0E37  1283               	bcf	3,5	;RP0=0, select bank0
  4190  0E38  1303               	bcf	3,6	;RP1=0, select bank0
  4191  0E39  00B1               	movwf	??_Display+2
  4192  0E3A  3004               	movlw	4
  4193  0E3B  00B0               	movwf	??_Display+1
  4194  0E3C  30B9               	movlw	185
  4195  0E3D  00AF               	movwf	??_Display
  4196  0E3E                     u3367:
  4197  0E3E  0BAF               	decfsz	??_Display,f
  4198  0E3F  2E3E               	goto	u3367
  4199  0E40  0BB0               	decfsz	??_Display+1,f
  4200  0E41  2E3E               	goto	u3367
  4201  0E42  0BB1               	decfsz	??_Display+2,f
  4202  0E43  2E3E               	goto	u3367
  4203  0E44  2E45               	nop2
  4204  0E45                     l43:
  4205  0E45  0008               	return
  4206  0E46                     __end_of_Display:
  4207                           
  4208                           	psect	text10
  4209  0080                     __ptext10:	
  4210 ;; *************** function _sprintf *****************
  4211 ;; Defined at:
  4212 ;;		line 505 in file "C:\Program Files\Microchip\xc8\v2.35\pic\sources\c90\common\doprnt.c"
  4213 ;; Parameters:    Size  Location     Type
  4214 ;;  sp              1    wreg     PTR unsigned char 
  4215 ;;		 -> Display@buffer2(16), Display@buffer1(16), 
  4216 ;;  f               1    0[BANK0 ] PTR const unsigned char 
  4217 ;;		 -> STR_2(11), STR_1(11), 
  4218 ;; Auto vars:     Size  Location     Type
  4219 ;;  sp              1   13[BANK0 ] PTR unsigned char 
  4220 ;;		 -> Display@buffer2(16), Display@buffer1(16), 
  4221 ;;  tmpval          4    0        struct .
  4222 ;;  width           2   11[BANK0 ] int 
  4223 ;;  val             2    9[BANK0 ] unsigned int 
  4224 ;;  cp              2    0        PTR const unsigned char 
  4225 ;;  len             2    0        unsigned int 
  4226 ;;  c               1   14[BANK0 ] unsigned char 
  4227 ;;  flag            1    8[BANK0 ] unsigned char 
  4228 ;;  prec            1    7[BANK0 ] char 
  4229 ;;  ap              1    6[BANK0 ] PTR void [1]
  4230 ;;		 -> ?_sprintf(2), 
  4231 ;; Return value:  Size  Location     Type
  4232 ;;                  2    0[BANK0 ] int 
  4233 ;; Registers used:
  4234 ;;		wreg, fsr0l, fsr0h, status,2, status,0, btemp+1, pclath, cstack
  4235 ;; Tracked objects:
  4236 ;;		On entry : 0/0
  4237 ;;		On exit  : 0/0
  4238 ;;		Unchanged: 0/0
  4239 ;; Data sizes:     COMMON   BANK0   BANK1   BANK3   BANK2
  4240 ;;      Params:         0       3       0       0       0
  4241 ;;      Locals:         0       9       0       0       0
  4242 ;;      Temps:          0       3       0       0       0
  4243 ;;      Totals:         0      15       0       0       0
  4244 ;;Total ram usage:       15 bytes
  4245 ;; Hardware stack levels used: 1
  4246 ;; Hardware stack levels required when called: 1
  4247 ;; This function calls:
  4248 ;;		___lwdiv
  4249 ;;		___lwmod
  4250 ;;		___wmul
  4251 ;;		_isdigit
  4252 ;; This function is called by:
  4253 ;;		_Display
  4254 ;; This function uses a non-reentrant model
  4255 ;;
  4256                           
  4257  0080                     _sprintf:	
  4258                           ;psect for function _sprintf
  4259                           
  4260                           
  4261                           ;incstack = 0
  4262                           ; Regs used in _sprintf: [wreg-fsr0h+status,2+status,0+btemp+1+pclath+cstack]
  4263                           ;sprintf@sp stored from wreg
  4264  0080  1283               	bcf	3,5	;RP0=0, select bank0
  4265  0081  1303               	bcf	3,6	;RP1=0, select bank0
  4266  0082  00AD               	movwf	sprintf@sp
  4267  0083                     l1931:
  4268                           
  4269                           ;C:\Program Files\Microchip\xc8\v2.35\pic\sources\c90\common\doprnt.c: 505: sprintf(char
      +                           * sp, const char * f, ...);C:\Program Files\Microchip\xc8\v2.35\pic\sources\c90\common\
      +                          doprnt.c: 506: {;C:\Program Files\Microchip\xc8\v2.35\pic\sources\c90\common\doprnt.c: 5
      +                          07:  va_list ap;;C:\Program Files\Microchip\xc8\v2.35\pic\sources\c90\common\doprnt.c: 5
      +                          12:  char c;;C:\Program Files\Microchip\xc8\v2.35\pic\sources\c90\common\doprnt.c: 514: 
      +                           int width;;C:\Program Files\Microchip\xc8\v2.35\pic\sources\c90\common\doprnt.c: 521:  
      +                          signed char prec;
  4270  0083  3021               	movlw	(low ((?_sprintf| 0+1)))& (0+255)
  4271  0084  00A3               	movwf	??_sprintf
  4272  0085  0823               	movf	??_sprintf,w
  4273  0086  00A6               	movwf	sprintf@ap
  4274                           
  4275                           ;C:\Program Files\Microchip\xc8\v2.35\pic\sources\c90\common\doprnt.c: 553:  while((c = 
      +                          *f++)) {
  4276  0087  29EF               	goto	l2013
  4277  0088                     l1933:
  4278                           
  4279                           ;C:\Program Files\Microchip\xc8\v2.35\pic\sources\c90\common\doprnt.c: 555:   if(c != '%
      +                          ')
  4280  0088  3025               	movlw	37
  4281  0089  062E               	xorwf	sprintf@c,w
  4282  008A  1903               	btfsc	3,2
  4283  008B  288D               	goto	u1931
  4284  008C  288E               	goto	u1930
  4285  008D                     u1931:
  4286  008D  289A               	goto	l1939
  4287  008E                     u1930:
  4288  008E                     l1935:
  4289                           
  4290                           ;C:\Program Files\Microchip\xc8\v2.35\pic\sources\c90\common\doprnt.c: 557:   {;C:\Progr
      +                          am Files\Microchip\xc8\v2.35\pic\sources\c90\common\doprnt.c: 558:    ((*sp++ = (c)));
  4291  008E  082E               	movf	sprintf@c,w
  4292  008F  00A3               	movwf	??_sprintf
  4293  0090  082D               	movf	sprintf@sp,w
  4294  0091  0084               	movwf	4
  4295  0092  0823               	movf	??_sprintf,w
  4296  0093  1383               	bcf	3,7	;select IRP bank0
  4297  0094  0080               	movwf	0
  4298  0095                     l1937:
  4299  0095  3001               	movlw	1
  4300  0096  00A3               	movwf	??_sprintf
  4301  0097  0823               	movf	??_sprintf,w
  4302  0098  07AD               	addwf	sprintf@sp,f
  4303                           
  4304                           ;C:\Program Files\Microchip\xc8\v2.35\pic\sources\c90\common\doprnt.c: 559:    continue;
  4305  0099  29EF               	goto	l2013
  4306  009A                     l1939:
  4307                           
  4308                           ;C:\Program Files\Microchip\xc8\v2.35\pic\sources\c90\common\doprnt.c: 563:   width = 0;
  4309  009A  01AB               	clrf	sprintf@width
  4310  009B  01AC               	clrf	sprintf@width+1
  4311                           
  4312                           ;C:\Program Files\Microchip\xc8\v2.35\pic\sources\c90\common\doprnt.c: 565:   flag = 0;
  4313  009C  01A8               	clrf	sprintf@flag
  4314  009D                     l1941:
  4315                           
  4316                           ;C:\Program Files\Microchip\xc8\v2.35\pic\sources\c90\common\doprnt.c: 614:   if(isdigit
      +                          ((unsigned)*f)) {
  4317  009D  0820               	movf	sprintf@f,w
  4318  009E  0084               	movwf	4
  4319  009F  120A  158A  2000  120A  118A  	fcall	stringdir
  4320  00A4  120A  158A  23CA  120A  118A  	fcall	_isdigit
  4321  00A9  1C03               	btfss	3,0
  4322  00AA  28AC               	goto	u1941
  4323  00AB  28AD               	goto	u1940
  4324  00AC                     u1941:
  4325  00AC  28ED               	goto	l1955
  4326  00AD                     u1940:
  4327  00AD                     l1943:
  4328                           
  4329                           ;C:\Program Files\Microchip\xc8\v2.35\pic\sources\c90\common\doprnt.c: 615:    width = 0
      +                          ;
  4330  00AD  1283               	bcf	3,5	;RP0=0, select bank0
  4331  00AE  1303               	bcf	3,6	;RP1=0, select bank0
  4332  00AF  01AB               	clrf	sprintf@width
  4333  00B0  01AC               	clrf	sprintf@width+1
  4334  00B1                     l1945:
  4335                           
  4336                           ;C:\Program Files\Microchip\xc8\v2.35\pic\sources\c90\common\doprnt.c: 617:     width *=
      +                           10;
  4337  00B1  300A               	movlw	10
  4338  00B2  00F0               	movwf	___wmul@multiplier
  4339  00B3  3000               	movlw	0
  4340  00B4  00F1               	movwf	___wmul@multiplier+1
  4341  00B5  1283               	bcf	3,5	;RP0=0, select bank0
  4342  00B6  1303               	bcf	3,6	;RP1=0, select bank0
  4343  00B7  082C               	movf	sprintf@width+1,w
  4344  00B8  00F3               	movwf	___wmul@multiplicand+1
  4345  00B9  082B               	movf	sprintf@width,w
  4346  00BA  00F2               	movwf	___wmul@multiplicand
  4347  00BB  120A  158A  24A7  120A  118A  	fcall	___wmul
  4348  00C0  0871               	movf	?___wmul+1,w
  4349  00C1  1283               	bcf	3,5	;RP0=0, select bank0
  4350  00C2  1303               	bcf	3,6	;RP1=0, select bank0
  4351  00C3  00AC               	movwf	sprintf@width+1
  4352  00C4  0870               	movf	?___wmul,w
  4353  00C5  00AB               	movwf	sprintf@width
  4354  00C6                     l1947:
  4355                           
  4356                           ;C:\Program Files\Microchip\xc8\v2.35\pic\sources\c90\common\doprnt.c: 618:        width
      +                           += *f++ - '0';
  4357  00C6  0820               	movf	sprintf@f,w
  4358  00C7  0084               	movwf	4
  4359  00C8  120A  158A  2000  120A  118A  	fcall	stringdir
  4360  00CD  3ED0               	addlw	208
  4361  00CE  00A3               	movwf	??_sprintf
  4362  00CF  30FF               	movlw	255
  4363  00D0  1803               	skipnc
  4364  00D1  3000               	movlw	0
  4365  00D2  00A4               	movwf	??_sprintf+1
  4366  00D3  0823               	movf	??_sprintf,w
  4367  00D4  07AB               	addwf	sprintf@width,f
  4368  00D5  1803               	skipnc
  4369  00D6  0AAC               	incf	sprintf@width+1,f
  4370  00D7  0824               	movf	??_sprintf+1,w
  4371  00D8  07AC               	addwf	sprintf@width+1,f
  4372  00D9                     l1949:
  4373  00D9  3001               	movlw	1
  4374  00DA  00A3               	movwf	??_sprintf
  4375  00DB  0823               	movf	??_sprintf,w
  4376  00DC  07A0               	addwf	sprintf@f,f
  4377  00DD                     l1951:
  4378                           
  4379                           ;C:\Program Files\Microchip\xc8\v2.35\pic\sources\c90\common\doprnt.c: 619:    } while(i
      +                          sdigit((unsigned)*f));
  4380  00DD  0820               	movf	sprintf@f,w
  4381  00DE  0084               	movwf	4
  4382  00DF  120A  158A  2000  120A  118A  	fcall	stringdir
  4383  00E4  120A  158A  23CA  120A  118A  	fcall	_isdigit
  4384  00E9  1803               	btfsc	3,0
  4385  00EA  28EC               	goto	u1951
  4386  00EB  28ED               	goto	u1950
  4387  00EC                     u1951:
  4388  00EC  28B1               	goto	l1945
  4389  00ED                     u1950:
  4390  00ED                     l1955:
  4391  00ED  3001               	movlw	1
  4392  00EE  1283               	bcf	3,5	;RP0=0, select bank0
  4393  00EF  1303               	bcf	3,6	;RP1=0, select bank0
  4394  00F0  07A0               	addwf	sprintf@f,f
  4395  00F1  30FF               	movlw	-1
  4396  00F2  0720               	addwf	sprintf@f,w
  4397  00F3  0084               	movwf	4
  4398  00F4  120A  158A  2000  120A  118A  	fcall	stringdir
  4399  00F9  00AE               	movwf	sprintf@c
  4400  00FA  00A3               	movwf	??_sprintf
  4401  00FB  01A4               	clrf	??_sprintf+1
  4402                           
  4403                           ; Switch on 2 bytes has been partitioned into a top level switch of size 1, and 1 sub-sw
      +                          itches
  4404                           ; Switch size 1, requested type "simple"
  4405                           ; Number of cases is 1, Range of values is 0 to 0
  4406                           ; switch strategies available:
  4407                           ; Name         Instructions Cycles
  4408                           ; simple_byte            4     3 (average)
  4409                           ; direct_byte           11     8 (fixed)
  4410                           ; jumptable            260     6 (fixed)
  4411                           ;	Chosen strategy is simple_byte
  4412  00FC  0824               	movf	??_sprintf+1,w
  4413  00FD  3A00               	xorlw	0	; case 0
  4414  00FE  1903               	skipnz
  4415  00FF  2901               	goto	l2683
  4416  0100  29EF               	goto	l2013
  4417  0101                     l2683:
  4418                           
  4419                           ; Switch size 1, requested type "simple"
  4420                           ; Number of cases is 3, Range of values is 0 to 105
  4421                           ; switch strategies available:
  4422                           ; Name         Instructions Cycles
  4423                           ; simple_byte           10     6 (average)
  4424                           ; jumptable            260     6 (fixed)
  4425                           ;	Chosen strategy is simple_byte
  4426  0101  0823               	movf	??_sprintf,w
  4427  0102  3A00               	xorlw	0	; case 0
  4428  0103  1903               	skipnz
  4429  0104  2A01               	goto	l2015
  4430  0105  3A64               	xorlw	100	; case 100
  4431  0106  1903               	skipnz
  4432  0107  290C               	goto	l1957
  4433  0108  3A0D               	xorlw	13	; case 105
  4434  0109  1903               	skipnz
  4435  010A  290C               	goto	l1957
  4436  010B  29EF               	goto	l2013
  4437  010C                     l1957:
  4438                           
  4439                           ;C:\Program Files\Microchip\xc8\v2.35\pic\sources\c90\common\doprnt.c: 1279:   {;C:\Prog
      +                          ram Files\Microchip\xc8\v2.35\pic\sources\c90\common\doprnt.c: 1285:     val = (unsigned
      +                           int)(*(int *)__va_arg((*(int **)ap), (int)0));
  4440  010C  0826               	movf	sprintf@ap,w
  4441  010D  0084               	movwf	4
  4442  010E  1383               	bcf	3,7	;select IRP bank0
  4443  010F  0800               	movf	0,w
  4444  0110  00A9               	movwf	sprintf@val
  4445  0111  0A84               	incf	4,f
  4446  0112  0800               	movf	0,w
  4447  0113  00AA               	movwf	sprintf@val+1
  4448  0114                     l1959:
  4449  0114  3002               	movlw	2
  4450  0115  00A3               	movwf	??_sprintf
  4451  0116  0823               	movf	??_sprintf,w
  4452  0117  07A6               	addwf	sprintf@ap,f
  4453  0118                     l1961:
  4454                           
  4455                           ;C:\Program Files\Microchip\xc8\v2.35\pic\sources\c90\common\doprnt.c: 1287:    if((int)
      +                          val < 0) {
  4456  0118  1FAA               	btfss	sprintf@val+1,7
  4457  0119  291B               	goto	u1961
  4458  011A  291C               	goto	u1960
  4459  011B                     u1961:
  4460  011B  2925               	goto	l1967
  4461  011C                     u1960:
  4462  011C                     l1963:
  4463                           
  4464                           ;C:\Program Files\Microchip\xc8\v2.35\pic\sources\c90\common\doprnt.c: 1288:     flag |=
      +                           0x03;
  4465  011C  3003               	movlw	3
  4466  011D  00A3               	movwf	??_sprintf
  4467  011E  0823               	movf	??_sprintf,w
  4468  011F  04A8               	iorwf	sprintf@flag,f
  4469  0120                     l1965:
  4470                           
  4471                           ;C:\Program Files\Microchip\xc8\v2.35\pic\sources\c90\common\doprnt.c: 1289:     val = -
      +                          val;
  4472  0120  09A9               	comf	sprintf@val,f
  4473  0121  09AA               	comf	sprintf@val+1,f
  4474  0122  0AA9               	incf	sprintf@val,f
  4475  0123  1903               	skipnz
  4476  0124  0AAA               	incf	sprintf@val+1,f
  4477  0125                     l1967:
  4478                           
  4479                           ;C:\Program Files\Microchip\xc8\v2.35\pic\sources\c90\common\doprnt.c: 1292:   };C:\Prog
      +                          ram Files\Microchip\xc8\v2.35\pic\sources\c90\common\doprnt.c: 1331:    for(c = 1 ; c !=
      +                           sizeof dpowers/sizeof dpowers[0] ; c++)
  4480  0125  01AE               	clrf	sprintf@c
  4481  0126  0AAE               	incf	sprintf@c,f
  4482  0127                     l1973:
  4483                           
  4484                           ;C:\Program Files\Microchip\xc8\v2.35\pic\sources\c90\common\doprnt.c: 1332:     if(val 
      +                          < dpowers[c])
  4485  0127  082E               	movf	sprintf@c,w
  4486  0128  00A3               	movwf	??_sprintf
  4487  0129  0723               	addwf	??_sprintf,w
  4488  012A  3E01               	addlw	low ((_dpowers-__stringbase)| (0+32768))
  4489  012B  0084               	movwf	4
  4490  012C  120A  158A  2000  120A  118A  	fcall	stringdir
  4491  0131  00A4               	movwf	??_sprintf+1
  4492  0132  120A  158A  2000  120A  118A  	fcall	stringdir
  4493  0137  00A5               	movwf	??_sprintf+2
  4494  0138  0825               	movf	??_sprintf+2,w
  4495  0139  022A               	subwf	sprintf@val+1,w
  4496  013A  1D03               	skipz
  4497  013B  293E               	goto	u1975
  4498  013C  0824               	movf	??_sprintf+1,w
  4499  013D  0229               	subwf	sprintf@val,w
  4500  013E                     u1975:
  4501  013E  1803               	skipnc
  4502  013F  2941               	goto	u1971
  4503  0140  2942               	goto	u1970
  4504  0141                     u1971:
  4505  0141  2943               	goto	l1977
  4506  0142                     u1970:
  4507  0142  294D               	goto	l1979
  4508  0143                     l1977:
  4509  0143  3001               	movlw	1
  4510  0144  00A3               	movwf	??_sprintf
  4511  0145  0823               	movf	??_sprintf,w
  4512  0146  07AE               	addwf	sprintf@c,f
  4513  0147  3005               	movlw	5
  4514  0148  062E               	xorwf	sprintf@c,w
  4515  0149  1D03               	btfss	3,2
  4516  014A  294C               	goto	u1981
  4517  014B  294D               	goto	u1980
  4518  014C                     u1981:
  4519  014C  2927               	goto	l1973
  4520  014D                     u1980:
  4521  014D                     l1979:
  4522                           
  4523                           ;C:\Program Files\Microchip\xc8\v2.35\pic\sources\c90\common\doprnt.c: 1371:   if(width 
      +                          && flag & 0x03)
  4524  014D  082B               	movf	sprintf@width,w
  4525  014E  042C               	iorwf	sprintf@width+1,w
  4526  014F  1903               	btfsc	3,2
  4527  0150  2952               	goto	u1991
  4528  0151  2953               	goto	u1990
  4529  0152                     u1991:
  4530  0152  295F               	goto	l367
  4531  0153                     u1990:
  4532  0153                     l1981:
  4533  0153  0828               	movf	sprintf@flag,w
  4534  0154  3903               	andlw	3
  4535  0155  1903               	btfsc	3,2
  4536  0156  2958               	goto	u2001
  4537  0157  2959               	goto	u2000
  4538  0158                     u2001:
  4539  0158  295F               	goto	l367
  4540  0159                     u2000:
  4541  0159                     l1983:
  4542                           
  4543                           ;C:\Program Files\Microchip\xc8\v2.35\pic\sources\c90\common\doprnt.c: 1372:    width--;
  4544  0159  30FF               	movlw	255
  4545  015A  07AB               	addwf	sprintf@width,f
  4546  015B  1803               	skipnc
  4547  015C  0AAC               	incf	sprintf@width+1,f
  4548  015D  30FF               	movlw	255
  4549  015E  07AC               	addwf	sprintf@width+1,f
  4550  015F                     l367:
  4551                           
  4552                           ;C:\Program Files\Microchip\xc8\v2.35\pic\sources\c90\common\doprnt.c: 1407:   if(width 
      +                          > c)
  4553  015F  082C               	movf	sprintf@width+1,w
  4554  0160  3A80               	xorlw	128
  4555  0161  3C80               	sublw	128
  4556  0162  1D03               	skipz
  4557  0163  2966               	goto	u2015
  4558  0164  082B               	movf	sprintf@width,w
  4559  0165  022E               	subwf	sprintf@c,w
  4560  0166                     u2015:
  4561  0166  1803               	skipnc
  4562  0167  2969               	goto	u2011
  4563  0168  296A               	goto	u2010
  4564  0169                     u2011:
  4565  0169  2976               	goto	l1987
  4566  016A                     u2010:
  4567  016A                     l1985:
  4568                           
  4569                           ;C:\Program Files\Microchip\xc8\v2.35\pic\sources\c90\common\doprnt.c: 1408:    width -=
      +                           c;
  4570  016A  1283               	bcf	3,5	;RP0=0, select bank0
  4571  016B  1303               	bcf	3,6	;RP1=0, select bank0
  4572  016C  082E               	movf	sprintf@c,w
  4573  016D  00A3               	movwf	??_sprintf
  4574  016E  01A4               	clrf	??_sprintf+1
  4575  016F  0823               	movf	??_sprintf,w
  4576  0170  02AB               	subwf	sprintf@width,f
  4577  0171  0824               	movf	??_sprintf+1,w
  4578  0172  1C03               	skipc
  4579  0173  03AC               	decf	sprintf@width+1,f
  4580  0174  02AC               	subwf	sprintf@width+1,f
  4581  0175  297A               	goto	l1989
  4582  0176                     l1987:
  4583                           
  4584                           ;C:\Program Files\Microchip\xc8\v2.35\pic\sources\c90\common\doprnt.c: 1410:    width = 
      +                          0;
  4585  0176  1283               	bcf	3,5	;RP0=0, select bank0
  4586  0177  1303               	bcf	3,6	;RP1=0, select bank0
  4587  0178  01AB               	clrf	sprintf@width
  4588  0179  01AC               	clrf	sprintf@width+1
  4589  017A                     l1989:
  4590                           
  4591                           ;C:\Program Files\Microchip\xc8\v2.35\pic\sources\c90\common\doprnt.c: 1448:   {;C:\Prog
      +                          ram Files\Microchip\xc8\v2.35\pic\sources\c90\common\doprnt.c: 1450:    if(width
  4592  017A  082B               	movf	sprintf@width,w
  4593  017B  042C               	iorwf	sprintf@width+1,w
  4594  017C  1903               	btfsc	3,2
  4595  017D  297F               	goto	u2021
  4596  017E  2980               	goto	u2020
  4597  017F                     u2021:
  4598  017F  2997               	goto	l1997
  4599  0180                     u2020:
  4600  0180                     l1991:
  4601                           
  4602                           ;C:\Program Files\Microchip\xc8\v2.35\pic\sources\c90\common\doprnt.c: 1456:      ((*sp+
      +                          + = (' ')));
  4603  0180  3020               	movlw	32
  4604  0181  00A3               	movwf	??_sprintf
  4605  0182  082D               	movf	sprintf@sp,w
  4606  0183  0084               	movwf	4
  4607  0184  0823               	movf	??_sprintf,w
  4608  0185  1383               	bcf	3,7	;select IRP bank0
  4609  0186  0080               	movwf	0
  4610  0187                     l1993:
  4611  0187  3001               	movlw	1
  4612  0188  00A3               	movwf	??_sprintf
  4613  0189  0823               	movf	??_sprintf,w
  4614  018A  07AD               	addwf	sprintf@sp,f
  4615  018B                     l1995:
  4616  018B  30FF               	movlw	255
  4617  018C  07AB               	addwf	sprintf@width,f
  4618  018D  1803               	skipnc
  4619  018E  0AAC               	incf	sprintf@width+1,f
  4620  018F  30FF               	movlw	255
  4621  0190  07AC               	addwf	sprintf@width+1,f
  4622  0191  082B               	movf	sprintf@width,w
  4623  0192  042C               	iorwf	sprintf@width+1,w
  4624  0193  1D03               	btfss	3,2
  4625  0194  2996               	goto	u2031
  4626  0195  2997               	goto	u2030
  4627  0196                     u2031:
  4628  0196  2980               	goto	l1991
  4629  0197                     u2030:
  4630  0197                     l1997:
  4631                           
  4632                           ;C:\Program Files\Microchip\xc8\v2.35\pic\sources\c90\common\doprnt.c: 1464:    if(flag 
      +                          & 0x03)
  4633  0197  0828               	movf	sprintf@flag,w
  4634  0198  3903               	andlw	3
  4635  0199  1903               	btfsc	3,2
  4636  019A  299C               	goto	u2041
  4637  019B  299D               	goto	u2040
  4638  019C                     u2041:
  4639  019C  29A8               	goto	l2003
  4640  019D                     u2040:
  4641  019D                     l1999:
  4642                           
  4643                           ;C:\Program Files\Microchip\xc8\v2.35\pic\sources\c90\common\doprnt.c: 1465:     ((*sp++
      +                           = ('-')));
  4644  019D  302D               	movlw	45
  4645  019E  00A3               	movwf	??_sprintf
  4646  019F  082D               	movf	sprintf@sp,w
  4647  01A0  0084               	movwf	4
  4648  01A1  0823               	movf	??_sprintf,w
  4649  01A2  1383               	bcf	3,7	;select IRP bank0
  4650  01A3  0080               	movwf	0
  4651  01A4                     l2001:
  4652  01A4  3001               	movlw	1
  4653  01A5  00A3               	movwf	??_sprintf
  4654  01A6  0823               	movf	??_sprintf,w
  4655  01A7  07AD               	addwf	sprintf@sp,f
  4656  01A8                     l2003:
  4657                           
  4658                           ;C:\Program Files\Microchip\xc8\v2.35\pic\sources\c90\common\doprnt.c: 1495:   };C:\Prog
      +                          ram Files\Microchip\xc8\v2.35\pic\sources\c90\common\doprnt.c: 1498:   prec = c;
  4659  01A8  082E               	movf	sprintf@c,w
  4660  01A9  00A3               	movwf	??_sprintf
  4661  01AA  0823               	movf	??_sprintf,w
  4662  01AB  00A7               	movwf	sprintf@prec
  4663                           
  4664                           ;C:\Program Files\Microchip\xc8\v2.35\pic\sources\c90\common\doprnt.c: 1500:   while(pre
      +                          c--) {
  4665  01AC  29E6               	goto	l2011
  4666  01AD                     l2005:
  4667                           
  4668                           ;C:\Program Files\Microchip\xc8\v2.35\pic\sources\c90\common\doprnt.c: 1504:    {;C:\Pro
      +                          gram Files\Microchip\xc8\v2.35\pic\sources\c90\common\doprnt.c: 1515:     c = (val / dpo
      +                          wers[(unsigned char)prec]) % 10 + '0';
  4669  01AD  300A               	movlw	10
  4670  01AE  00F8               	movwf	___lwmod@divisor
  4671  01AF  3000               	movlw	0
  4672  01B0  00F9               	movwf	___lwmod@divisor+1
  4673  01B1  0827               	movf	sprintf@prec,w
  4674  01B2  00A3               	movwf	??_sprintf
  4675  01B3  0723               	addwf	??_sprintf,w
  4676  01B4  3E01               	addlw	low ((_dpowers-__stringbase)| (0+32768))
  4677  01B5  0084               	movwf	4
  4678  01B6  120A  158A  2000  120A  118A  	fcall	stringdir
  4679  01BB  00F0               	movwf	___lwdiv@divisor
  4680  01BC  120A  158A  2000  120A  118A  	fcall	stringdir
  4681  01C1  00F1               	movwf	___lwdiv@divisor+1
  4682  01C2  082A               	movf	sprintf@val+1,w
  4683  01C3  00F3               	movwf	___lwdiv@dividend+1
  4684  01C4  0829               	movf	sprintf@val,w
  4685  01C5  00F2               	movwf	___lwdiv@dividend
  4686  01C6  120A  158A  2563  120A  118A  	fcall	___lwdiv
  4687  01CB  0871               	movf	?___lwdiv+1,w
  4688  01CC  00FB               	movwf	___lwmod@dividend+1
  4689  01CD  0870               	movf	?___lwdiv,w
  4690  01CE  00FA               	movwf	___lwmod@dividend
  4691  01CF  120A  158A  2529  120A  118A  	fcall	___lwmod
  4692  01D4  0878               	movf	?___lwmod,w
  4693  01D5  3E30               	addlw	48
  4694  01D6  1283               	bcf	3,5	;RP0=0, select bank0
  4695  01D7  1303               	bcf	3,6	;RP1=0, select bank0
  4696  01D8  00A4               	movwf	??_sprintf+1
  4697  01D9  0824               	movf	??_sprintf+1,w
  4698  01DA  00AE               	movwf	sprintf@c
  4699  01DB                     l2007:
  4700                           
  4701                           ;C:\Program Files\Microchip\xc8\v2.35\pic\sources\c90\common\doprnt.c: 1549:    };C:\Pro
      +                          gram Files\Microchip\xc8\v2.35\pic\sources\c90\common\doprnt.c: 1550:    ((*sp++ = (c)))
      +                          ;
  4702  01DB  082E               	movf	sprintf@c,w
  4703  01DC  00A3               	movwf	??_sprintf
  4704  01DD  082D               	movf	sprintf@sp,w
  4705  01DE  0084               	movwf	4
  4706  01DF  0823               	movf	??_sprintf,w
  4707  01E0  1383               	bcf	3,7	;select IRP bank0
  4708  01E1  0080               	movwf	0
  4709  01E2                     l2009:
  4710  01E2  3001               	movlw	1
  4711  01E3  00A3               	movwf	??_sprintf
  4712  01E4  0823               	movf	??_sprintf,w
  4713  01E5  07AD               	addwf	sprintf@sp,f
  4714  01E6                     l2011:
  4715                           
  4716                           ;C:\Program Files\Microchip\xc8\v2.35\pic\sources\c90\common\doprnt.c: 1500:   while(pre
      +                          c--) {
  4717  01E6  30FF               	movlw	255
  4718  01E7  00A3               	movwf	??_sprintf
  4719  01E8  0823               	movf	??_sprintf,w
  4720  01E9  07A7               	addwf	sprintf@prec,f
  4721  01EA  0A27               	incf	sprintf@prec,w
  4722  01EB  1D03               	btfss	3,2
  4723  01EC  29EE               	goto	u2051
  4724  01ED  29EF               	goto	u2050
  4725  01EE                     u2051:
  4726  01EE  29AD               	goto	l2005
  4727  01EF                     u2050:
  4728  01EF                     l2013:
  4729                           
  4730                           ;C:\Program Files\Microchip\xc8\v2.35\pic\sources\c90\common\doprnt.c: 553:  while((c = 
      +                          *f++)) {
  4731  01EF  3001               	movlw	1
  4732  01F0  07A0               	addwf	sprintf@f,f
  4733  01F1  30FF               	movlw	-1
  4734  01F2  0720               	addwf	sprintf@f,w
  4735  01F3  0084               	movwf	4
  4736  01F4  120A  158A  2000  120A  118A  	fcall	stringdir
  4737  01F9  00A3               	movwf	??_sprintf
  4738  01FA  0823               	movf	??_sprintf,w
  4739  01FB  00AE               	movwf	sprintf@c
  4740  01FC  082E               	movf	sprintf@c,w
  4741  01FD  1D03               	btfss	3,2
  4742  01FE  2A00               	goto	u2061
  4743  01FF  2A01               	goto	u2060
  4744  0200                     u2061:
  4745  0200  2888               	goto	l1933
  4746  0201                     u2060:
  4747  0201                     l2015:
  4748                           
  4749                           ;C:\Program Files\Microchip\xc8\v2.35\pic\sources\c90\common\doprnt.c: 1564:  *sp = 0;
  4750  0201  082D               	movf	sprintf@sp,w
  4751  0202  0084               	movwf	4
  4752  0203  1383               	bcf	3,7	;select IRP bank0
  4753  0204  0180               	clrf	0
  4754  0205                     l378:
  4755  0205  0008               	return
  4756  0206                     __end_of_sprintf:
  4757                           
  4758                           	psect	text11
  4759  0BCA                     __ptext11:	
  4760 ;; *************** function _isdigit *****************
  4761 ;; Defined at:
  4762 ;;		line 8 in file "C:\Program Files\Microchip\xc8\v2.35\pic\sources\c90\common\isdigit.c"
  4763 ;; Parameters:    Size  Location     Type
  4764 ;;  c               1    wreg     unsigned char 
  4765 ;; Auto vars:     Size  Location     Type
  4766 ;;  c               1    1[COMMON] unsigned char 
  4767 ;; Return value:  Size  Location     Type
  4768 ;;		None               void
  4769 ;; Registers used:
  4770 ;;		wreg, status,2, status,0
  4771 ;; Tracked objects:
  4772 ;;		On entry : 0/0
  4773 ;;		On exit  : 0/0
  4774 ;;		Unchanged: 0/0
  4775 ;; Data sizes:     COMMON   BANK0   BANK1   BANK3   BANK2
  4776 ;;      Params:         0       0       0       0       0
  4777 ;;      Locals:         2       0       0       0       0
  4778 ;;      Temps:          0       0       0       0       0
  4779 ;;      Totals:         2       0       0       0       0
  4780 ;;Total ram usage:        2 bytes
  4781 ;; Hardware stack levels used: 1
  4782 ;; This function calls:
  4783 ;;		Nothing
  4784 ;; This function is called by:
  4785 ;;		_sprintf
  4786 ;; This function uses a non-reentrant model
  4787 ;;
  4788                           
  4789  0BCA                     _isdigit:	
  4790                           ;psect for function _isdigit
  4791                           
  4792                           
  4793                           ;incstack = 0
  4794                           ; Regs used in _isdigit: [wreg+status,2+status,0]
  4795                           ;isdigit@c stored from wreg
  4796  0BCA  00F1               	movwf	isdigit@c
  4797  0BCB                     l1843:
  4798  0BCB  01F0               	clrf	_isdigit$972
  4799  0BCC                     l1845:
  4800  0BCC  303A               	movlw	58
  4801  0BCD  0271               	subwf	isdigit@c,w
  4802  0BCE  1803               	skipnc
  4803  0BCF  2BD1               	goto	u1711
  4804  0BD0  2BD2               	goto	u1710
  4805  0BD1                     u1711:
  4806  0BD1  2BDA               	goto	l1851
  4807  0BD2                     u1710:
  4808  0BD2                     l1847:
  4809  0BD2  3030               	movlw	48
  4810  0BD3  0271               	subwf	isdigit@c,w
  4811  0BD4  1C03               	skipc
  4812  0BD5  2BD7               	goto	u1721
  4813  0BD6  2BD8               	goto	u1720
  4814  0BD7                     u1721:
  4815  0BD7  2BDA               	goto	l1851
  4816  0BD8                     u1720:
  4817  0BD8                     l1849:
  4818  0BD8  01F0               	clrf	_isdigit$972
  4819  0BD9  0AF0               	incf	_isdigit$972,f
  4820  0BDA                     l1851:
  4821  0BDA  0C70               	rrf	_isdigit$972,w
  4822  0BDB                     l835:
  4823  0BDB  0008               	return
  4824  0BDC                     __end_of_isdigit:
  4825                           
  4826                           	psect	text12
  4827  0CA7                     __ptext12:	
  4828 ;; *************** function ___wmul *****************
  4829 ;; Defined at:
  4830 ;;		line 15 in file "C:\Program Files\Microchip\xc8\v2.35\pic\sources\c90\common\Umul16.c"
  4831 ;; Parameters:    Size  Location     Type
  4832 ;;  multiplier      2    0[COMMON] unsigned int 
  4833 ;;  multiplicand    2    2[COMMON] unsigned int 
  4834 ;; Auto vars:     Size  Location     Type
  4835 ;;  product         2    4[COMMON] unsigned int 
  4836 ;; Return value:  Size  Location     Type
  4837 ;;                  2    0[COMMON] unsigned int 
  4838 ;; Registers used:
  4839 ;;		wreg, status,2, status,0
  4840 ;; Tracked objects:
  4841 ;;		On entry : 0/0
  4842 ;;		On exit  : 0/0
  4843 ;;		Unchanged: 0/0
  4844 ;; Data sizes:     COMMON   BANK0   BANK1   BANK3   BANK2
  4845 ;;      Params:         4       0       0       0       0
  4846 ;;      Locals:         2       0       0       0       0
  4847 ;;      Temps:          0       0       0       0       0
  4848 ;;      Totals:         6       0       0       0       0
  4849 ;;Total ram usage:        6 bytes
  4850 ;; Hardware stack levels used: 1
  4851 ;; This function calls:
  4852 ;;		Nothing
  4853 ;; This function is called by:
  4854 ;;		_sprintf
  4855 ;; This function uses a non-reentrant model
  4856 ;;
  4857                           
  4858  0CA7                     ___wmul:	
  4859                           ;psect for function ___wmul
  4860                           
  4861  0CA7                     l1855:	
  4862                           ;incstack = 0
  4863                           ; Regs used in ___wmul: [wreg+status,2+status,0]
  4864                           
  4865  0CA7  01F4               	clrf	___wmul@product
  4866  0CA8  01F5               	clrf	___wmul@product+1
  4867  0CA9                     l1857:
  4868  0CA9  1C70               	btfss	___wmul@multiplier,0
  4869  0CAA  2CAC               	goto	u1731
  4870  0CAB  2CAD               	goto	u1730
  4871  0CAC                     u1731:
  4872  0CAC  2CB3               	goto	l382
  4873  0CAD                     u1730:
  4874  0CAD                     l1859:
  4875  0CAD  0872               	movf	___wmul@multiplicand,w
  4876  0CAE  07F4               	addwf	___wmul@product,f
  4877  0CAF  1803               	skipnc
  4878  0CB0  0AF5               	incf	___wmul@product+1,f
  4879  0CB1  0873               	movf	___wmul@multiplicand+1,w
  4880  0CB2  07F5               	addwf	___wmul@product+1,f
  4881  0CB3                     l382:
  4882  0CB3  3001               	movlw	1
  4883  0CB4                     u1745:
  4884  0CB4  1003               	clrc
  4885  0CB5  0DF2               	rlf	___wmul@multiplicand,f
  4886  0CB6  0DF3               	rlf	___wmul@multiplicand+1,f
  4887  0CB7  3EFF               	addlw	-1
  4888  0CB8  1D03               	skipz
  4889  0CB9  2CB4               	goto	u1745
  4890  0CBA                     l1861:
  4891  0CBA  3001               	movlw	1
  4892  0CBB                     u1755:
  4893  0CBB  1003               	clrc
  4894  0CBC  0CF1               	rrf	___wmul@multiplier+1,f
  4895  0CBD  0CF0               	rrf	___wmul@multiplier,f
  4896  0CBE  3EFF               	addlw	-1
  4897  0CBF  1D03               	skipz
  4898  0CC0  2CBB               	goto	u1755
  4899  0CC1                     l1863:
  4900  0CC1  0870               	movf	___wmul@multiplier,w
  4901  0CC2  0471               	iorwf	___wmul@multiplier+1,w
  4902  0CC3  1D03               	btfss	3,2
  4903  0CC4  2CC6               	goto	u1761
  4904  0CC5  2CC7               	goto	u1760
  4905  0CC6                     u1761:
  4906  0CC6  2CA9               	goto	l1857
  4907  0CC7                     u1760:
  4908  0CC7                     l1865:
  4909  0CC7  0875               	movf	___wmul@product+1,w
  4910  0CC8  00F1               	movwf	?___wmul+1
  4911  0CC9  0874               	movf	___wmul@product,w
  4912  0CCA  00F0               	movwf	?___wmul
  4913  0CCB                     l384:
  4914  0CCB  0008               	return
  4915  0CCC                     __end_of___wmul:
  4916                           
  4917                           	psect	text13
  4918  0D29                     __ptext13:	
  4919 ;; *************** function ___lwmod *****************
  4920 ;; Defined at:
  4921 ;;		line 5 in file "C:\Program Files\Microchip\xc8\v2.35\pic\sources\c90\common\lwmod.c"
  4922 ;; Parameters:    Size  Location     Type
  4923 ;;  divisor         2    8[COMMON] unsigned int 
  4924 ;;  dividend        2   10[COMMON] unsigned int 
  4925 ;; Auto vars:     Size  Location     Type
  4926 ;;  counter         1   13[COMMON] unsigned char 
  4927 ;; Return value:  Size  Location     Type
  4928 ;;                  2    8[COMMON] unsigned int 
  4929 ;; Registers used:
  4930 ;;		wreg, status,2, status,0
  4931 ;; Tracked objects:
  4932 ;;		On entry : 0/0
  4933 ;;		On exit  : 0/0
  4934 ;;		Unchanged: 0/0
  4935 ;; Data sizes:     COMMON   BANK0   BANK1   BANK3   BANK2
  4936 ;;      Params:         4       0       0       0       0
  4937 ;;      Locals:         1       0       0       0       0
  4938 ;;      Temps:          1       0       0       0       0
  4939 ;;      Totals:         6       0       0       0       0
  4940 ;;Total ram usage:        6 bytes
  4941 ;; Hardware stack levels used: 1
  4942 ;; This function calls:
  4943 ;;		Nothing
  4944 ;; This function is called by:
  4945 ;;		_sprintf
  4946 ;; This function uses a non-reentrant model
  4947 ;;
  4948                           
  4949  0D29                     ___lwmod:	
  4950                           ;psect for function ___lwmod
  4951                           
  4952  0D29                     l1895:	
  4953                           ;incstack = 0
  4954                           ; Regs used in ___lwmod: [wreg+status,2+status,0]
  4955                           
  4956  0D29  0878               	movf	___lwmod@divisor,w
  4957  0D2A  0479               	iorwf	___lwmod@divisor+1,w
  4958  0D2B  1903               	btfsc	3,2
  4959  0D2C  2D2E               	goto	u1841
  4960  0D2D  2D2F               	goto	u1840
  4961  0D2E                     u1841:
  4962  0D2E  2D5E               	goto	l1913
  4963  0D2F                     u1840:
  4964  0D2F                     l1897:
  4965  0D2F  01FD               	clrf	___lwmod@counter
  4966  0D30  0AFD               	incf	___lwmod@counter,f
  4967  0D31  2D3D               	goto	l1903
  4968  0D32                     l1899:
  4969  0D32  3001               	movlw	1
  4970  0D33                     u1855:
  4971  0D33  1003               	clrc
  4972  0D34  0DF8               	rlf	___lwmod@divisor,f
  4973  0D35  0DF9               	rlf	___lwmod@divisor+1,f
  4974  0D36  3EFF               	addlw	-1
  4975  0D37  1D03               	skipz
  4976  0D38  2D33               	goto	u1855
  4977  0D39                     l1901:
  4978  0D39  3001               	movlw	1
  4979  0D3A  00FC               	movwf	??___lwmod
  4980  0D3B  087C               	movf	??___lwmod,w
  4981  0D3C  07FD               	addwf	___lwmod@counter,f
  4982  0D3D                     l1903:
  4983  0D3D  1FF9               	btfss	___lwmod@divisor+1,7
  4984  0D3E  2D40               	goto	u1861
  4985  0D3F  2D41               	goto	u1860
  4986  0D40                     u1861:
  4987  0D40  2D32               	goto	l1899
  4988  0D41                     u1860:
  4989  0D41                     l1905:
  4990  0D41  0879               	movf	___lwmod@divisor+1,w
  4991  0D42  027B               	subwf	___lwmod@dividend+1,w
  4992  0D43  1D03               	skipz
  4993  0D44  2D47               	goto	u1875
  4994  0D45  0878               	movf	___lwmod@divisor,w
  4995  0D46  027A               	subwf	___lwmod@dividend,w
  4996  0D47                     u1875:
  4997  0D47  1C03               	skipc
  4998  0D48  2D4A               	goto	u1871
  4999  0D49  2D4B               	goto	u1870
  5000  0D4A                     u1871:
  5001  0D4A  2D51               	goto	l1909
  5002  0D4B                     u1870:
  5003  0D4B                     l1907:
  5004  0D4B  0878               	movf	___lwmod@divisor,w
  5005  0D4C  02FA               	subwf	___lwmod@dividend,f
  5006  0D4D  0879               	movf	___lwmod@divisor+1,w
  5007  0D4E  1C03               	skipc
  5008  0D4F  03FB               	decf	___lwmod@dividend+1,f
  5009  0D50  02FB               	subwf	___lwmod@dividend+1,f
  5010  0D51                     l1909:
  5011  0D51  3001               	movlw	1
  5012  0D52                     u1885:
  5013  0D52  1003               	clrc
  5014  0D53  0CF9               	rrf	___lwmod@divisor+1,f
  5015  0D54  0CF8               	rrf	___lwmod@divisor,f
  5016  0D55  3EFF               	addlw	-1
  5017  0D56  1D03               	skipz
  5018  0D57  2D52               	goto	u1885
  5019  0D58                     l1911:
  5020  0D58  3001               	movlw	1
  5021  0D59  02FD               	subwf	___lwmod@counter,f
  5022  0D5A  1D03               	btfss	3,2
  5023  0D5B  2D5D               	goto	u1891
  5024  0D5C  2D5E               	goto	u1890
  5025  0D5D                     u1891:
  5026  0D5D  2D41               	goto	l1905
  5027  0D5E                     u1890:
  5028  0D5E                     l1913:
  5029  0D5E  087B               	movf	___lwmod@dividend+1,w
  5030  0D5F  00F9               	movwf	?___lwmod+1
  5031  0D60  087A               	movf	___lwmod@dividend,w
  5032  0D61  00F8               	movwf	?___lwmod
  5033  0D62                     l664:
  5034  0D62  0008               	return
  5035  0D63                     __end_of___lwmod:
  5036                           
  5037                           	psect	text14
  5038  0D63                     __ptext14:	
  5039 ;; *************** function ___lwdiv *****************
  5040 ;; Defined at:
  5041 ;;		line 5 in file "C:\Program Files\Microchip\xc8\v2.35\pic\sources\c90\common\lwdiv.c"
  5042 ;; Parameters:    Size  Location     Type
  5043 ;;  divisor         2    0[COMMON] unsigned int 
  5044 ;;  dividend        2    2[COMMON] unsigned int 
  5045 ;; Auto vars:     Size  Location     Type
  5046 ;;  quotient        2    5[COMMON] unsigned int 
  5047 ;;  counter         1    7[COMMON] unsigned char 
  5048 ;; Return value:  Size  Location     Type
  5049 ;;                  2    0[COMMON] unsigned int 
  5050 ;; Registers used:
  5051 ;;		wreg, status,2, status,0
  5052 ;; Tracked objects:
  5053 ;;		On entry : 0/0
  5054 ;;		On exit  : 0/0
  5055 ;;		Unchanged: 0/0
  5056 ;; Data sizes:     COMMON   BANK0   BANK1   BANK3   BANK2
  5057 ;;      Params:         4       0       0       0       0
  5058 ;;      Locals:         3       0       0       0       0
  5059 ;;      Temps:          1       0       0       0       0
  5060 ;;      Totals:         8       0       0       0       0
  5061 ;;Total ram usage:        8 bytes
  5062 ;; Hardware stack levels used: 1
  5063 ;; This function calls:
  5064 ;;		Nothing
  5065 ;; This function is called by:
  5066 ;;		_sprintf
  5067 ;; This function uses a non-reentrant model
  5068 ;;
  5069                           
  5070  0D63                     ___lwdiv:	
  5071                           ;psect for function ___lwdiv
  5072                           
  5073  0D63                     l1869:	
  5074                           ;incstack = 0
  5075                           ; Regs used in ___lwdiv: [wreg+status,2+status,0]
  5076                           
  5077  0D63  01F5               	clrf	___lwdiv@quotient
  5078  0D64  01F6               	clrf	___lwdiv@quotient+1
  5079  0D65                     l1871:
  5080  0D65  0870               	movf	___lwdiv@divisor,w
  5081  0D66  0471               	iorwf	___lwdiv@divisor+1,w
  5082  0D67  1903               	btfsc	3,2
  5083  0D68  2D6A               	goto	u1771
  5084  0D69  2D6B               	goto	u1770
  5085  0D6A                     u1771:
  5086  0D6A  2DA2               	goto	l1891
  5087  0D6B                     u1770:
  5088  0D6B                     l1873:
  5089  0D6B  01F7               	clrf	___lwdiv@counter
  5090  0D6C  0AF7               	incf	___lwdiv@counter,f
  5091  0D6D  2D79               	goto	l1879
  5092  0D6E                     l1875:
  5093  0D6E  3001               	movlw	1
  5094  0D6F                     u1785:
  5095  0D6F  1003               	clrc
  5096  0D70  0DF0               	rlf	___lwdiv@divisor,f
  5097  0D71  0DF1               	rlf	___lwdiv@divisor+1,f
  5098  0D72  3EFF               	addlw	-1
  5099  0D73  1D03               	skipz
  5100  0D74  2D6F               	goto	u1785
  5101  0D75                     l1877:
  5102  0D75  3001               	movlw	1
  5103  0D76  00F4               	movwf	??___lwdiv
  5104  0D77  0874               	movf	??___lwdiv,w
  5105  0D78  07F7               	addwf	___lwdiv@counter,f
  5106  0D79                     l1879:
  5107  0D79  1FF1               	btfss	___lwdiv@divisor+1,7
  5108  0D7A  2D7C               	goto	u1791
  5109  0D7B  2D7D               	goto	u1790
  5110  0D7C                     u1791:
  5111  0D7C  2D6E               	goto	l1875
  5112  0D7D                     u1790:
  5113  0D7D                     l1881:
  5114  0D7D  3001               	movlw	1
  5115  0D7E                     u1805:
  5116  0D7E  1003               	clrc
  5117  0D7F  0DF5               	rlf	___lwdiv@quotient,f
  5118  0D80  0DF6               	rlf	___lwdiv@quotient+1,f
  5119  0D81  3EFF               	addlw	-1
  5120  0D82  1D03               	skipz
  5121  0D83  2D7E               	goto	u1805
  5122  0D84  0871               	movf	___lwdiv@divisor+1,w
  5123  0D85  0273               	subwf	___lwdiv@dividend+1,w
  5124  0D86  1D03               	skipz
  5125  0D87  2D8A               	goto	u1815
  5126  0D88  0870               	movf	___lwdiv@divisor,w
  5127  0D89  0272               	subwf	___lwdiv@dividend,w
  5128  0D8A                     u1815:
  5129  0D8A  1C03               	skipc
  5130  0D8B  2D8D               	goto	u1811
  5131  0D8C  2D8E               	goto	u1810
  5132  0D8D                     u1811:
  5133  0D8D  2D95               	goto	l1887
  5134  0D8E                     u1810:
  5135  0D8E                     l1883:
  5136  0D8E  0870               	movf	___lwdiv@divisor,w
  5137  0D8F  02F2               	subwf	___lwdiv@dividend,f
  5138  0D90  0871               	movf	___lwdiv@divisor+1,w
  5139  0D91  1C03               	skipc
  5140  0D92  03F3               	decf	___lwdiv@dividend+1,f
  5141  0D93  02F3               	subwf	___lwdiv@dividend+1,f
  5142  0D94                     l1885:
  5143  0D94  1475               	bsf	___lwdiv@quotient,0
  5144  0D95                     l1887:
  5145  0D95  3001               	movlw	1
  5146  0D96                     u1825:
  5147  0D96  1003               	clrc
  5148  0D97  0CF1               	rrf	___lwdiv@divisor+1,f
  5149  0D98  0CF0               	rrf	___lwdiv@divisor,f
  5150  0D99  3EFF               	addlw	-1
  5151  0D9A  1D03               	skipz
  5152  0D9B  2D96               	goto	u1825
  5153  0D9C                     l1889:
  5154  0D9C  3001               	movlw	1
  5155  0D9D  02F7               	subwf	___lwdiv@counter,f
  5156  0D9E  1D03               	btfss	3,2
  5157  0D9F  2DA1               	goto	u1831
  5158  0DA0  2DA2               	goto	u1830
  5159  0DA1                     u1831:
  5160  0DA1  2D7D               	goto	l1881
  5161  0DA2                     u1830:
  5162  0DA2                     l1891:
  5163  0DA2  0876               	movf	___lwdiv@quotient+1,w
  5164  0DA3  00F1               	movwf	?___lwdiv+1
  5165  0DA4  0875               	movf	___lwdiv@quotient,w
  5166  0DA5  00F0               	movwf	?___lwdiv
  5167  0DA6                     l654:
  5168  0DA6  0008               	return
  5169  0DA7                     __end_of___lwdiv:
  5170                           
  5171                           	psect	text15
  5172  0C86                     __ptext15:	
  5173 ;; *************** function _LCD_Write_String *****************
  5174 ;; Defined at:
  5175 ;;		line 79 in file "LCD.c"
  5176 ;; Parameters:    Size  Location     Type
  5177 ;;  Str             1    wreg     PTR const unsigned char 
  5178 ;;		 -> Display@buffer2(16), Display@buffer1(16), 
  5179 ;; Auto vars:     Size  Location     Type
  5180 ;;  Str             1   10[COMMON] PTR const unsigned char 
  5181 ;;		 -> Display@buffer2(16), Display@buffer1(16), 
  5182 ;;  i               2    8[COMMON] int 
  5183 ;; Return value:  Size  Location     Type
  5184 ;;                  1    wreg      void 
  5185 ;; Registers used:
  5186 ;;		wreg, fsr0l, fsr0h, status,2, status,0, pclath, cstack
  5187 ;; Tracked objects:
  5188 ;;		On entry : 0/0
  5189 ;;		On exit  : 0/0
  5190 ;;		Unchanged: 0/0
  5191 ;; Data sizes:     COMMON   BANK0   BANK1   BANK3   BANK2
  5192 ;;      Params:         0       0       0       0       0
  5193 ;;      Locals:         3       0       0       0       0
  5194 ;;      Temps:          1       0       0       0       0
  5195 ;;      Totals:         4       0       0       0       0
  5196 ;;Total ram usage:        4 bytes
  5197 ;; Hardware stack levels used: 1
  5198 ;; Hardware stack levels required when called: 6
  5199 ;; This function calls:
  5200 ;;		_LCD_Write_Char
  5201 ;; This function is called by:
  5202 ;;		_Display
  5203 ;;		_LCD_String_xy
  5204 ;; This function uses a non-reentrant model
  5205 ;;
  5206                           
  5207  0C86                     _LCD_Write_String:	
  5208                           ;psect for function _LCD_Write_String
  5209                           
  5210                           
  5211                           ;incstack = 0
  5212                           ; Regs used in _LCD_Write_String: [wreg-fsr0h+status,2+status,0+pclath+cstack]
  5213                           ;LCD_Write_String@Str stored from wreg
  5214  0C86  00FA               	movwf	LCD_Write_String@Str
  5215  0C87                     l2027:
  5216                           
  5217                           ;LCD.c: 79: void LCD_Write_String(const char* Str);LCD.c: 80: {;LCD.c: 81:   for(int i=0
      +                          ; Str[i]!='\0'; i++)
  5218  0C87  01F8               	clrf	LCD_Write_String@i
  5219  0C88  01F9               	clrf	LCD_Write_String@i+1
  5220  0C89  2C9B               	goto	l2033
  5221  0C8A                     l2029:
  5222                           
  5223                           ;LCD.c: 82:     LCD_Write_Char(Str[i]);
  5224  0C8A  0878               	movf	LCD_Write_String@i,w
  5225  0C8B  077A               	addwf	LCD_Write_String@Str,w
  5226  0C8C  00F7               	movwf	??_LCD_Write_String
  5227  0C8D  0877               	movf	??_LCD_Write_String,w
  5228  0C8E  0084               	movwf	4
  5229  0C8F  0800               	movf	0,w
  5230  0C90  120A  158A  2469  120A  158A  	fcall	_LCD_Write_Char
  5231  0C95                     l2031:
  5232  0C95  3001               	movlw	1
  5233  0C96  07F8               	addwf	LCD_Write_String@i,f
  5234  0C97  1803               	skipnc
  5235  0C98  0AF9               	incf	LCD_Write_String@i+1,f
  5236  0C99  3000               	movlw	0
  5237  0C9A  07F9               	addwf	LCD_Write_String@i+1,f
  5238  0C9B                     l2033:
  5239  0C9B  0878               	movf	LCD_Write_String@i,w
  5240  0C9C  077A               	addwf	LCD_Write_String@Str,w
  5241  0C9D  00F7               	movwf	??_LCD_Write_String
  5242  0C9E  0877               	movf	??_LCD_Write_String,w
  5243  0C9F  0084               	movwf	4
  5244  0CA0  1383               	bcf	3,7	;select IRP bank0
  5245  0CA1  0800               	movf	0,w
  5246  0CA2  1D03               	btfss	3,2
  5247  0CA3  2CA5               	goto	u2071
  5248  0CA4  2CA6               	goto	u2070
  5249  0CA5                     u2071:
  5250  0CA5  2C8A               	goto	l2029
  5251  0CA6                     u2070:
  5252  0CA6                     l207:
  5253  0CA6  0008               	return
  5254  0CA7                     __end_of_LCD_Write_String:
  5255                           
  5256                           	psect	text16
  5257  0C69                     __ptext16:	
  5258 ;; *************** function _LCD_Write_Char *****************
  5259 ;; Defined at:
  5260 ;;		line 72 in file "LCD.c"
  5261 ;; Parameters:    Size  Location     Type
  5262 ;;  Data            1    wreg     const unsigned char 
  5263 ;; Auto vars:     Size  Location     Type
  5264 ;;  Data            1    6[COMMON] const unsigned char 
  5265 ;; Return value:  Size  Location     Type
  5266 ;;                  1    wreg      void 
  5267 ;; Registers used:
  5268 ;;		wreg, status,2, status,0, pclath, cstack
  5269 ;; Tracked objects:
  5270 ;;		On entry : 0/0
  5271 ;;		On exit  : 0/0
  5272 ;;		Unchanged: 0/0
  5273 ;; Data sizes:     COMMON   BANK0   BANK1   BANK3   BANK2
  5274 ;;      Params:         0       0       0       0       0
  5275 ;;      Locals:         1       0       0       0       0
  5276 ;;      Temps:          1       0       0       0       0
  5277 ;;      Totals:         2       0       0       0       0
  5278 ;;Total ram usage:        2 bytes
  5279 ;; Hardware stack levels used: 1
  5280 ;; Hardware stack levels required when called: 5
  5281 ;; This function calls:
  5282 ;;		_LCD_Write_4Bit
  5283 ;; This function is called by:
  5284 ;;		_LCD_Write_String
  5285 ;; This function uses a non-reentrant model
  5286 ;;
  5287                           
  5288  0C69                     _LCD_Write_Char:	
  5289                           ;psect for function _LCD_Write_Char
  5290                           
  5291                           
  5292                           ;incstack = 0
  5293                           ; Regs used in _LCD_Write_Char: [wreg+status,2+status,0+pclath+cstack]
  5294                           ;LCD_Write_Char@Data stored from wreg
  5295  0C69  00F6               	movwf	LCD_Write_Char@Data
  5296  0C6A                     l1839:
  5297                           
  5298                           ;LCD.c: 72: void LCD_Write_Char(const char Data);LCD.c: 73: {;LCD.c: 74:   RS = 1;
  5299  0C6A  1283               	bcf	3,5	;RP0=0, select bank0
  5300  0C6B  1303               	bcf	3,6	;RP1=0, select bank0
  5301  0C6C  01E1               	clrf	_RS
  5302  0C6D  0AE1               	incf	_RS,f
  5303  0C6E                     l1841:
  5304                           
  5305                           ;LCD.c: 75:   LCD_Write_4Bit(Data & 0xF0);
  5306  0C6E  0876               	movf	LCD_Write_Char@Data,w
  5307  0C6F  39F0               	andlw	240
  5308  0C70  120A  158A  2433  120A  158A  	fcall	_LCD_Write_4Bit
  5309                           
  5310                           ;LCD.c: 76:   LCD_Write_4Bit((Data << 4) & 0xF0);
  5311  0C75  0876               	movf	LCD_Write_Char@Data,w
  5312  0C76  00F5               	movwf	??_LCD_Write_Char
  5313  0C77  3003               	movlw	3
  5314  0C78                     u1705:
  5315  0C78  1003               	clrc
  5316  0C79  0DF5               	rlf	??_LCD_Write_Char,f
  5317  0C7A  3EFF               	addlw	-1
  5318  0C7B  1D03               	skipz
  5319  0C7C  2C78               	goto	u1705
  5320  0C7D  1003               	clrc
  5321  0C7E  0D75               	rlf	??_LCD_Write_Char,w
  5322  0C7F  39F0               	andlw	240
  5323  0C80  120A  158A  2433  120A  158A  	fcall	_LCD_Write_4Bit
  5324  0C85                     l201:
  5325  0C85  0008               	return
  5326  0C86                     __end_of_LCD_Write_Char:
  5327                           
  5328                           	psect	text17
  5329  0CF3                     __ptext17:	
  5330 ;; *************** function _LCD_Set_Cursor *****************
  5331 ;; Defined at:
  5332 ;;		line 85 in file "LCD.c"
  5333 ;; Parameters:    Size  Location     Type
  5334 ;;  ROW             1    wreg     unsigned char 
  5335 ;;  COL             1    7[COMMON] unsigned char 
  5336 ;; Auto vars:     Size  Location     Type
  5337 ;;  ROW             1   10[COMMON] unsigned char 
  5338 ;; Return value:  Size  Location     Type
  5339 ;;                  1    wreg      void 
  5340 ;; Registers used:
  5341 ;;		wreg, fsr0l, fsr0h, status,2, status,0, pclath, cstack
  5342 ;; Tracked objects:
  5343 ;;		On entry : 0/0
  5344 ;;		On exit  : 0/0
  5345 ;;		Unchanged: 0/0
  5346 ;; Data sizes:     COMMON   BANK0   BANK1   BANK3   BANK2
  5347 ;;      Params:         1       0       0       0       0
  5348 ;;      Locals:         1       0       0       0       0
  5349 ;;      Temps:          2       0       0       0       0
  5350 ;;      Totals:         4       0       0       0       0
  5351 ;;Total ram usage:        4 bytes
  5352 ;; Hardware stack levels used: 1
  5353 ;; Hardware stack levels required when called: 6
  5354 ;; This function calls:
  5355 ;;		_LCD_CMD
  5356 ;; This function is called by:
  5357 ;;		_Display
  5358 ;; This function uses a non-reentrant model
  5359 ;;
  5360                           
  5361  0CF3                     _LCD_Set_Cursor:	
  5362                           ;psect for function _LCD_Set_Cursor
  5363                           
  5364                           
  5365                           ;incstack = 0
  5366                           ; Regs used in _LCD_Set_Cursor: [wreg-fsr0h+status,2+status,0+pclath+cstack]
  5367                           ;LCD_Set_Cursor@ROW stored from wreg
  5368  0CF3  00FA               	movwf	LCD_Set_Cursor@ROW
  5369  0CF4                     l2035:
  5370                           
  5371                           ;LCD.c: 85: void LCD_Set_Cursor(unsigned char ROW, unsigned char COL);LCD.c: 86: {;LCD.c
      +                          : 87:   switch(ROW)
  5372  0CF4  2D15               	goto	l2045
  5373  0CF5                     l2037:
  5374                           
  5375                           ;LCD.c: 90:       LCD_CMD(0xC0 + COL-1);
  5376  0CF5  0877               	movf	LCD_Set_Cursor@COL,w
  5377  0CF6  3EBF               	addlw	191
  5378  0CF7  120A  158A  244D  120A  158A  	fcall	_LCD_CMD
  5379                           
  5380                           ;LCD.c: 91:       break;
  5381  0CFC  2D28               	goto	l216
  5382  0CFD                     l2039:
  5383                           
  5384                           ;LCD.c: 93:       LCD_CMD(0x94 + COL-1);
  5385  0CFD  0877               	movf	LCD_Set_Cursor@COL,w
  5386  0CFE  3E93               	addlw	147
  5387  0CFF  120A  158A  244D  120A  158A  	fcall	_LCD_CMD
  5388                           
  5389                           ;LCD.c: 94:       break;
  5390  0D04  2D28               	goto	l216
  5391  0D05                     l2041:
  5392                           
  5393                           ;LCD.c: 96:       LCD_CMD(0xD4 + COL-1);
  5394  0D05  0877               	movf	LCD_Set_Cursor@COL,w
  5395  0D06  3ED3               	addlw	211
  5396  0D07  120A  158A  244D  120A  158A  	fcall	_LCD_CMD
  5397                           
  5398                           ;LCD.c: 97:       break;
  5399  0D0C  2D28               	goto	l216
  5400  0D0D                     l2043:
  5401                           
  5402                           ;LCD.c: 100:       LCD_CMD(0x80 + COL-1);
  5403  0D0D  0877               	movf	LCD_Set_Cursor@COL,w
  5404  0D0E  3E7F               	addlw	127
  5405  0D0F  120A  158A  244D  120A  158A  	fcall	_LCD_CMD
  5406                           
  5407                           ;LCD.c: 101:   }
  5408  0D14  2D28               	goto	l216
  5409  0D15                     l2045:
  5410  0D15  087A               	movf	LCD_Set_Cursor@ROW,w
  5411  0D16  00F8               	movwf	??_LCD_Set_Cursor
  5412  0D17  01F9               	clrf	??_LCD_Set_Cursor+1
  5413                           
  5414                           ; Switch on 2 bytes has been partitioned into a top level switch of size 1, and 1 sub-sw
      +                          itches
  5415                           ; Switch size 1, requested type "simple"
  5416                           ; Number of cases is 1, Range of values is 0 to 0
  5417                           ; switch strategies available:
  5418                           ; Name         Instructions Cycles
  5419                           ; simple_byte            4     3 (average)
  5420                           ; direct_byte           11     8 (fixed)
  5421                           ; jumptable            260     6 (fixed)
  5422                           ;	Chosen strategy is simple_byte
  5423  0D18  0879               	movf	??_LCD_Set_Cursor+1,w
  5424  0D19  3A00               	xorlw	0	; case 0
  5425  0D1A  1903               	skipnz
  5426  0D1B  2D1D               	goto	l2685
  5427  0D1C  2D0D               	goto	l2043
  5428  0D1D                     l2685:
  5429                           
  5430                           ; Switch size 1, requested type "simple"
  5431                           ; Number of cases is 3, Range of values is 2 to 4
  5432                           ; switch strategies available:
  5433                           ; Name         Instructions Cycles
  5434                           ; simple_byte           10     6 (average)
  5435                           ; direct_byte           20    11 (fixed)
  5436                           ; jumptable            263     9 (fixed)
  5437                           ;	Chosen strategy is simple_byte
  5438  0D1D  0878               	movf	??_LCD_Set_Cursor,w
  5439  0D1E  3A02               	xorlw	2	; case 2
  5440  0D1F  1903               	skipnz
  5441  0D20  2CF5               	goto	l2037
  5442  0D21  3A01               	xorlw	1	; case 3
  5443  0D22  1903               	skipnz
  5444  0D23  2CFD               	goto	l2039
  5445  0D24  3A07               	xorlw	7	; case 4
  5446  0D25  1903               	skipnz
  5447  0D26  2D05               	goto	l2041
  5448  0D27  2D0D               	goto	l2043
  5449  0D28                     l216:
  5450  0D28  0008               	return
  5451  0D29                     __end_of_LCD_Set_Cursor:
  5452                           
  5453                           	psect	text18
  5454  0BBE                     __ptext18:	
  5455 ;; *************** function _LCD_Clear *****************
  5456 ;; Defined at:
  5457 ;;		line 128 in file "LCD.c"
  5458 ;; Parameters:    Size  Location     Type
  5459 ;;		None
  5460 ;; Auto vars:     Size  Location     Type
  5461 ;;		None
  5462 ;; Return value:  Size  Location     Type
  5463 ;;                  1    wreg      void 
  5464 ;; Registers used:
  5465 ;;		wreg, status,2, status,0, pclath, cstack
  5466 ;; Tracked objects:
  5467 ;;		On entry : 0/0
  5468 ;;		On exit  : 0/0
  5469 ;;		Unchanged: 0/0
  5470 ;; Data sizes:     COMMON   BANK0   BANK1   BANK3   BANK2
  5471 ;;      Params:         0       0       0       0       0
  5472 ;;      Locals:         0       0       0       0       0
  5473 ;;      Temps:          1       0       0       0       0
  5474 ;;      Totals:         1       0       0       0       0
  5475 ;;Total ram usage:        1 bytes
  5476 ;; Hardware stack levels used: 1
  5477 ;; Hardware stack levels required when called: 6
  5478 ;; This function calls:
  5479 ;;		_LCD_CMD
  5480 ;; This function is called by:
  5481 ;;		_Display
  5482 ;;		_main
  5483 ;; This function uses a non-reentrant model
  5484 ;;
  5485                           
  5486  0BBE                     _LCD_Clear:	
  5487                           ;psect for function _LCD_Clear
  5488                           
  5489  0BBE                     l2023:	
  5490                           ;incstack = 0
  5491                           ; Regs used in _LCD_Clear: [wreg+status,2+status,0+pclath+cstack]
  5492                           
  5493                           
  5494                           ;LCD.c: 130:   LCD_CMD(0x01);
  5495  0BBE  3001               	movlw	1
  5496  0BBF  120A  158A  244D  120A  158A  	fcall	_LCD_CMD
  5497  0BC4                     l2025:
  5498                           
  5499                           ;LCD.c: 131:   _delay((unsigned long)((40)*(8000000/4000000.0)));
  5500  0BC4  301A               	movlw	26
  5501  0BC5  00F7               	movwf	??_LCD_Clear
  5502  0BC6                     u3377:
  5503  0BC6  0BF7               	decfsz	??_LCD_Clear,f
  5504  0BC7  2BC6               	goto	u3377
  5505  0BC8  0000               	nop
  5506  0BC9                     l231:
  5507  0BC9  0008               	return
  5508  0BCA                     __end_of_LCD_Clear:
  5509                           
  5510                           	psect	text19
  5511  0C4D                     __ptext19:	
  5512 ;; *************** function _LCD_CMD *****************
  5513 ;; Defined at:
  5514 ;;		line 65 in file "LCD.c"
  5515 ;; Parameters:    Size  Location     Type
  5516 ;;  CMD             1    wreg     unsigned char 
  5517 ;; Auto vars:     Size  Location     Type
  5518 ;;  CMD             1    6[COMMON] unsigned char 
  5519 ;; Return value:  Size  Location     Type
  5520 ;;                  1    wreg      void 
  5521 ;; Registers used:
  5522 ;;		wreg, status,2, status,0, pclath, cstack
  5523 ;; Tracked objects:
  5524 ;;		On entry : 0/0
  5525 ;;		On exit  : 0/0
  5526 ;;		Unchanged: 0/0
  5527 ;; Data sizes:     COMMON   BANK0   BANK1   BANK3   BANK2
  5528 ;;      Params:         0       0       0       0       0
  5529 ;;      Locals:         1       0       0       0       0
  5530 ;;      Temps:          1       0       0       0       0
  5531 ;;      Totals:         2       0       0       0       0
  5532 ;;Total ram usage:        2 bytes
  5533 ;; Hardware stack levels used: 1
  5534 ;; Hardware stack levels required when called: 5
  5535 ;; This function calls:
  5536 ;;		_LCD_Write_4Bit
  5537 ;; This function is called by:
  5538 ;;		_LCD_Init
  5539 ;;		_LCD_Set_Cursor
  5540 ;;		_LCD_Clear
  5541 ;;		_LCD_String_xy
  5542 ;;		_LCD_SL
  5543 ;;		_LCD_SR
  5544 ;; This function uses a non-reentrant model
  5545 ;;
  5546                           
  5547  0C4D                     _LCD_CMD:	
  5548                           ;psect for function _LCD_CMD
  5549                           
  5550                           
  5551                           ;incstack = 0
  5552                           ; Regs used in _LCD_CMD: [wreg+status,2+status,0+pclath+cstack]
  5553                           ;LCD_CMD@CMD stored from wreg
  5554  0C4D  00F6               	movwf	LCD_CMD@CMD
  5555  0C4E                     l1833:
  5556                           
  5557                           ;LCD.c: 65: void LCD_CMD(unsigned char CMD);LCD.c: 66: {;LCD.c: 67:   RS = 0;
  5558  0C4E  1283               	bcf	3,5	;RP0=0, select bank0
  5559  0C4F  1303               	bcf	3,6	;RP1=0, select bank0
  5560  0C50  01E1               	clrf	_RS
  5561  0C51                     l1835:
  5562                           
  5563                           ;LCD.c: 68:   LCD_Write_4Bit(CMD & 0xF0);
  5564  0C51  0876               	movf	LCD_CMD@CMD,w
  5565  0C52  39F0               	andlw	240
  5566  0C53  120A  158A  2433  120A  158A  	fcall	_LCD_Write_4Bit
  5567  0C58                     l1837:
  5568                           
  5569                           ;LCD.c: 69:   LCD_Write_4Bit((CMD << 4) & 0xF0);
  5570  0C58  0876               	movf	LCD_CMD@CMD,w
  5571  0C59  00F5               	movwf	??_LCD_CMD
  5572  0C5A  3003               	movlw	3
  5573  0C5B                     u1695:
  5574  0C5B  1003               	clrc
  5575  0C5C  0DF5               	rlf	??_LCD_CMD,f
  5576  0C5D  3EFF               	addlw	-1
  5577  0C5E  1D03               	skipz
  5578  0C5F  2C5B               	goto	u1695
  5579  0C60  1003               	clrc
  5580  0C61  0D75               	rlf	??_LCD_CMD,w
  5581  0C62  39F0               	andlw	240
  5582  0C63  120A  158A  2433  120A  158A  	fcall	_LCD_Write_4Bit
  5583  0C68                     l198:
  5584  0C68  0008               	return
  5585  0C69                     __end_of_LCD_CMD:
  5586                           
  5587                           	psect	text20
  5588  0C33                     __ptext20:	
  5589 ;; *************** function _LCD_Write_4Bit *****************
  5590 ;; Defined at:
  5591 ;;		line 56 in file "LCD.c"
  5592 ;; Parameters:    Size  Location     Type
  5593 ;;  Nibble          1    wreg     unsigned char 
  5594 ;; Auto vars:     Size  Location     Type
  5595 ;;  Nibble          1    4[COMMON] unsigned char 
  5596 ;; Return value:  Size  Location     Type
  5597 ;;                  1    wreg      void 
  5598 ;; Registers used:
  5599 ;;		wreg, status,2, status,0, pclath, cstack
  5600 ;; Tracked objects:
  5601 ;;		On entry : 0/0
  5602 ;;		On exit  : 0/0
  5603 ;;		Unchanged: 0/0
  5604 ;; Data sizes:     COMMON   BANK0   BANK1   BANK3   BANK2
  5605 ;;      Params:         0       0       0       0       0
  5606 ;;      Locals:         1       0       0       0       0
  5607 ;;      Temps:          1       0       0       0       0
  5608 ;;      Totals:         2       0       0       0       0
  5609 ;;Total ram usage:        2 bytes
  5610 ;; Hardware stack levels used: 1
  5611 ;; Hardware stack levels required when called: 4
  5612 ;; This function calls:
  5613 ;;		_IO_Expander_Write
  5614 ;; This function is called by:
  5615 ;;		_LCD_CMD
  5616 ;;		_LCD_Write_Char
  5617 ;; This function uses a non-reentrant model
  5618 ;;
  5619                           
  5620  0C33                     _LCD_Write_4Bit:	
  5621                           ;psect for function _LCD_Write_4Bit
  5622                           
  5623                           
  5624                           ;incstack = 0
  5625                           ; Regs used in _LCD_Write_4Bit: [wreg+status,2+status,0+pclath+cstack]
  5626                           ;LCD_Write_4Bit@Nibble stored from wreg
  5627  0C33  00F4               	movwf	LCD_Write_4Bit@Nibble
  5628  0C34                     l1827:
  5629                           
  5630                           ;LCD.c: 56: void LCD_Write_4Bit(unsigned char Nibble);LCD.c: 57: {;LCD.c: 59:   Nibble |
      +                          = RS;
  5631  0C34  1283               	bcf	3,5	;RP0=0, select bank0
  5632  0C35  1303               	bcf	3,6	;RP1=0, select bank0
  5633  0C36  0861               	movf	_RS,w
  5634  0C37  00F3               	movwf	??_LCD_Write_4Bit
  5635  0C38  0873               	movf	??_LCD_Write_4Bit,w
  5636  0C39  04F4               	iorwf	LCD_Write_4Bit@Nibble,f
  5637  0C3A                     l1829:
  5638                           
  5639                           ;LCD.c: 60:   IO_Expander_Write(Nibble | 0x04);
  5640  0C3A  0874               	movf	LCD_Write_4Bit@Nibble,w
  5641  0C3B  3804               	iorlw	4
  5642  0C3C  120A  158A  2404  120A  158A  	fcall	_IO_Expander_Write
  5643  0C41                     l1831:
  5644                           
  5645                           ;LCD.c: 61:   IO_Expander_Write(Nibble & 0xFB);
  5646  0C41  0874               	movf	LCD_Write_4Bit@Nibble,w
  5647  0C42  39FB               	andlw	251
  5648  0C43  120A  158A  2404  120A  158A  	fcall	_IO_Expander_Write
  5649                           
  5650                           ;LCD.c: 62:   _delay((unsigned long)((50)*(8000000/4000000.0)));
  5651  0C48  3021               	movlw	33
  5652  0C49  00F3               	movwf	??_LCD_Write_4Bit
  5653  0C4A                     u3387:
  5654  0C4A  0BF3               	decfsz	??_LCD_Write_4Bit,f
  5655  0C4B  2C4A               	goto	u3387
  5656  0C4C                     l195:
  5657  0C4C  0008               	return
  5658  0C4D                     __end_of_LCD_Write_4Bit:
  5659                           
  5660                           	psect	text21
  5661  0C04                     __ptext21:	
  5662 ;; *************** function _IO_Expander_Write *****************
  5663 ;; Defined at:
  5664 ;;		line 49 in file "LCD.c"
  5665 ;; Parameters:    Size  Location     Type
  5666 ;;  Data            1    wreg     unsigned char 
  5667 ;; Auto vars:     Size  Location     Type
  5668 ;;  Data            1    2[COMMON] unsigned char 
  5669 ;; Return value:  Size  Location     Type
  5670 ;;                  1    wreg      void 
  5671 ;; Registers used:
  5672 ;;		wreg, status,2, status,0, pclath, cstack
  5673 ;; Tracked objects:
  5674 ;;		On entry : 0/0
  5675 ;;		On exit  : 0/0
  5676 ;;		Unchanged: 0/0
  5677 ;; Data sizes:     COMMON   BANK0   BANK1   BANK3   BANK2
  5678 ;;      Params:         0       0       0       0       0
  5679 ;;      Locals:         1       0       0       0       0
  5680 ;;      Temps:          0       0       0       0       0
  5681 ;;      Totals:         1       0       0       0       0
  5682 ;;Total ram usage:        1 bytes
  5683 ;; Hardware stack levels used: 1
  5684 ;; Hardware stack levels required when called: 3
  5685 ;; This function calls:
  5686 ;;		_I2C_Start
  5687 ;;		_I2C_Stop
  5688 ;;		_I2C_Write
  5689 ;; This function is called by:
  5690 ;;		_LCD_Init
  5691 ;;		_LCD_Write_4Bit
  5692 ;;		_Backlight
  5693 ;;		_noBacklight
  5694 ;; This function uses a non-reentrant model
  5695 ;;
  5696                           
  5697  0C04                     _IO_Expander_Write:	
  5698                           ;psect for function _IO_Expander_Write
  5699                           
  5700                           
  5701                           ;incstack = 0
  5702                           ; Regs used in _IO_Expander_Write: [wreg+status,2+status,0+pclath+cstack]
  5703                           ;IO_Expander_Write@Data stored from wreg
  5704  0C04  00F2               	movwf	IO_Expander_Write@Data
  5705  0C05                     l1825:
  5706                           
  5707                           ;LCD.c: 49: void IO_Expander_Write(unsigned char Data);LCD.c: 50: {;LCD.c: 51:   I2C_Sta
      +                          rt(0x4E);
  5708  0C05  304E               	movlw	78
  5709  0C06  120A  158A  241A  120A  158A  	fcall	_I2C_Start
  5710                           
  5711                           ;LCD.c: 52:   I2C_Write(Data | BackLight_State);
  5712  0C0B  0872               	movf	IO_Expander_Write@Data,w
  5713  0C0C  1283               	bcf	3,5	;RP0=0, select bank0
  5714  0C0D  1303               	bcf	3,6	;RP1=0, select bank0
  5715  0C0E  0464               	iorwf	_BackLight_State,w
  5716  0C0F  120A  158A  23DC  120A  158A  	fcall	_I2C_Write
  5717                           
  5718                           ;LCD.c: 53:   I2C_Stop();
  5719  0C14  120A  158A  23B5  120A  158A  	fcall	_I2C_Stop
  5720  0C19                     l192:
  5721  0C19  0008               	return
  5722  0C1A                     __end_of_IO_Expander_Write:
  5723                           
  5724                           	psect	text22
  5725  0BB5                     __ptext22:	
  5726 ;; *************** function _I2C_Stop *****************
  5727 ;; Defined at:
  5728 ;;		line 91 in file "I2C_Master.c"
  5729 ;; Parameters:    Size  Location     Type
  5730 ;;		None
  5731 ;; Auto vars:     Size  Location     Type
  5732 ;;		None
  5733 ;; Return value:  Size  Location     Type
  5734 ;;                  1    wreg      unsigned char 
  5735 ;; Registers used:
  5736 ;;		wreg
  5737 ;; Tracked objects:
  5738 ;;		On entry : 0/0
  5739 ;;		On exit  : 0/0
  5740 ;;		Unchanged: 0/0
  5741 ;; Data sizes:     COMMON   BANK0   BANK1   BANK3   BANK2
  5742 ;;      Params:         0       0       0       0       0
  5743 ;;      Locals:         0       0       0       0       0
  5744 ;;      Temps:          0       0       0       0       0
  5745 ;;      Totals:         0       0       0       0       0
  5746 ;;Total ram usage:        0 bytes
  5747 ;; Hardware stack levels used: 1
  5748 ;; This function calls:
  5749 ;;		Nothing
  5750 ;; This function is called by:
  5751 ;;		_IO_Expander_Write
  5752 ;;		_I2C_Start_Wait
  5753 ;; This function uses a non-reentrant model
  5754 ;;
  5755                           
  5756  0BB5                     _I2C_Stop:	
  5757                           ;psect for function _I2C_Stop
  5758                           
  5759  0BB5                     l1815:	
  5760                           ;incstack = 0
  5761                           ; Regs used in _I2C_Stop: [wreg]
  5762                           
  5763                           
  5764                           ;I2C_Master.c: 93:     PEN = 1;
  5765  0BB5  1683               	bsf	3,5	;RP0=1, select bank1
  5766  0BB6  1303               	bcf	3,6	;RP1=0, select bank1
  5767  0BB7  1511               	bsf	17,2	;volatile
  5768  0BB8                     l142:	
  5769                           ;I2C_Master.c: 94:     while(PEN);
  5770                           
  5771  0BB8  1911               	btfsc	17,2	;volatile
  5772  0BB9  2BBB               	goto	u1661
  5773  0BBA  2BBC               	goto	u1660
  5774  0BBB                     u1661:
  5775  0BBB  2BB8               	goto	l142
  5776  0BBC                     u1660:
  5777  0BBC                     l144:
  5778                           
  5779                           ;I2C_Master.c: 95:     if(!SSPSTATbits.P)
  5780  0BBC  0814               	movf	20,w	;volatile
  5781  0BBD                     l146:
  5782  0BBD  0008               	return
  5783  0BBE                     __end_of_I2C_Stop:
  5784                           
  5785                           	psect	text23
  5786  0C1A                     __ptext23:	
  5787 ;; *************** function _I2C_Start *****************
  5788 ;; Defined at:
  5789 ;;		line 66 in file "I2C_Master.c"
  5790 ;; Parameters:    Size  Location     Type
  5791 ;;  slave_write_    1    wreg     unsigned char 
  5792 ;; Auto vars:     Size  Location     Type
  5793 ;;  slave_write_    1    1[COMMON] unsigned char 
  5794 ;; Return value:  Size  Location     Type
  5795 ;;                  1    wreg      unsigned char 
  5796 ;; Registers used:
  5797 ;;		wreg, status,2, status,0, pclath, cstack
  5798 ;; Tracked objects:
  5799 ;;		On entry : 0/0
  5800 ;;		On exit  : 0/0
  5801 ;;		Unchanged: 0/0
  5802 ;; Data sizes:     COMMON   BANK0   BANK1   BANK3   BANK2
  5803 ;;      Params:         0       0       0       0       0
  5804 ;;      Locals:         1       0       0       0       0
  5805 ;;      Temps:          0       0       0       0       0
  5806 ;;      Totals:         1       0       0       0       0
  5807 ;;Total ram usage:        1 bytes
  5808 ;; Hardware stack levels used: 1
  5809 ;; Hardware stack levels required when called: 2
  5810 ;; This function calls:
  5811 ;;		_I2C_Write
  5812 ;; This function is called by:
  5813 ;;		_IO_Expander_Write
  5814 ;; This function uses a non-reentrant model
  5815 ;;
  5816                           
  5817  0C1A                     _I2C_Start:	
  5818                           ;psect for function _I2C_Start
  5819                           
  5820                           
  5821                           ;incstack = 0
  5822                           ; Regs used in _I2C_Start: [wreg+status,2+status,0+pclath+cstack]
  5823                           ;I2C_Start@slave_write_address stored from wreg
  5824  0C1A  00F1               	movwf	I2C_Start@slave_write_address
  5825  0C1B                     l1817:
  5826                           
  5827                           ;I2C_Master.c: 66: char I2C_Start(char slave_write_address);I2C_Master.c: 67: {;I2C_Mast
      +                          er.c: 68:     SSPCON2bits.SEN=1;
  5828  0C1B  1683               	bsf	3,5	;RP0=1, select bank1
  5829  0C1C  1303               	bcf	3,6	;RP1=0, select bank1
  5830  0C1D  1411               	bsf	17,0	;volatile
  5831  0C1E                     l126:	
  5832                           ;I2C_Master.c: 69:     while(SSPCON2bits.SEN);
  5833                           
  5834  0C1E  1811               	btfsc	17,0	;volatile
  5835  0C1F  2C21               	goto	u1671
  5836  0C20  2C22               	goto	u1670
  5837  0C21                     u1671:
  5838  0C21  2C1E               	goto	l126
  5839  0C22                     u1670:
  5840  0C22                     l128:
  5841                           
  5842                           ;I2C_Master.c: 70:  SSPIF=0;
  5843  0C22  1283               	bcf	3,5	;RP0=0, select bank0
  5844  0C23  1303               	bcf	3,6	;RP1=0, select bank0
  5845  0C24  118C               	bcf	12,3	;volatile
  5846                           
  5847                           ;I2C_Master.c: 71:     if(!SSPSTATbits.S)
  5848  0C25  1683               	bsf	3,5	;RP0=1, select bank1
  5849  0C26  1303               	bcf	3,6	;RP1=0, select bank1
  5850  0C27  1994               	btfsc	20,3	;volatile
  5851  0C28  2C2A               	goto	u1681
  5852  0C29  2C2B               	goto	u1680
  5853  0C2A                     u1681:
  5854  0C2A  2C2C               	goto	l1821
  5855  0C2B                     u1680:
  5856  0C2B  2C32               	goto	l130
  5857  0C2C                     l1821:
  5858                           
  5859                           ;I2C_Master.c: 73:     return (I2C_Write(slave_write_address));;	Return value of _I2C_St
      +                          art is never used
  5860  0C2C  0871               	movf	I2C_Start@slave_write_address,w
  5861  0C2D  120A  158A  23DC  120A  158A  	fcall	_I2C_Write
  5862  0C32                     l130:
  5863  0C32  0008               	return
  5864  0C33                     __end_of_I2C_Start:
  5865                           
  5866                           	psect	text24
  5867  0BDC                     __ptext24:	
  5868 ;; *************** function _I2C_Write *****************
  5869 ;; Defined at:
  5870 ;;		line 100 in file "I2C_Master.c"
  5871 ;; Parameters:    Size  Location     Type
  5872 ;;  data            1    wreg     unsigned char 
  5873 ;; Auto vars:     Size  Location     Type
  5874 ;;  data            1    0[COMMON] unsigned char 
  5875 ;; Return value:  Size  Location     Type
  5876 ;;                  1    wreg      unsigned char 
  5877 ;; Registers used:
  5878 ;;		wreg, status,2, status,0, pclath, cstack
  5879 ;; Tracked objects:
  5880 ;;		On entry : 0/0
  5881 ;;		On exit  : 0/0
  5882 ;;		Unchanged: 0/0
  5883 ;; Data sizes:     COMMON   BANK0   BANK1   BANK3   BANK2
  5884 ;;      Params:         0       0       0       0       0
  5885 ;;      Locals:         1       0       0       0       0
  5886 ;;      Temps:          0       0       0       0       0
  5887 ;;      Totals:         1       0       0       0       0
  5888 ;;Total ram usage:        1 bytes
  5889 ;; Hardware stack levels used: 1
  5890 ;; Hardware stack levels required when called: 1
  5891 ;; This function calls:
  5892 ;;		_I2C_Ready
  5893 ;; This function is called by:
  5894 ;;		_I2C_Start
  5895 ;;		_IO_Expander_Write
  5896 ;;		_I2C_Start_Wait
  5897 ;;		_I2C_Repeated_Start
  5898 ;; This function uses a non-reentrant model
  5899 ;;
  5900                           
  5901  0BDC                     _I2C_Write:	
  5902                           ;psect for function _I2C_Write
  5903                           
  5904                           
  5905                           ;incstack = 0
  5906                           ; Regs used in _I2C_Write: [wreg+status,2+status,0+pclath+cstack]
  5907                           ;I2C_Write@data stored from wreg
  5908  0BDC  00F0               	movwf	I2C_Write@data
  5909  0BDD                     l1799:
  5910                           
  5911                           ;I2C_Master.c: 100: char I2C_Write(unsigned char data);I2C_Master.c: 101: {;I2C_Master.c
      +                          : 102:       SSPBUF = data;
  5912  0BDD  0870               	movf	I2C_Write@data,w
  5913  0BDE  1283               	bcf	3,5	;RP0=0, select bank0
  5914  0BDF  1303               	bcf	3,6	;RP1=0, select bank0
  5915  0BE0  0093               	movwf	19	;volatile
  5916  0BE1                     l1801:
  5917                           
  5918                           ;I2C_Master.c: 103:       I2C_Ready();
  5919  0BE1  120A  158A  23AD  120A  158A  	fcall	_I2C_Ready
  5920  0BE6                     l1803:
  5921                           
  5922                           ;I2C_Master.c: 104:       if (ACKSTAT)
  5923  0BE6  1683               	bsf	3,5	;RP0=1, select bank1
  5924  0BE7  1303               	bcf	3,6	;RP1=0, select bank1
  5925  0BE8  1F11               	btfss	17,6	;volatile
  5926  0BE9  2BEB               	goto	u1651
  5927  0BEA  2BEC               	goto	u1650
  5928  0BEB                     u1651:
  5929  0BEB  2BEE               	goto	l1811
  5930  0BEC                     u1650:
  5931  0BEC                     l1805:
  5932                           
  5933                           ;I2C_Master.c: 105:         return 1;
  5934  0BEC  3001               	movlw	1
  5935  0BED  2BEF               	goto	l150
  5936  0BEE                     l1811:
  5937                           
  5938                           ;I2C_Master.c: 107:         return 2;
  5939  0BEE  3002               	movlw	2
  5940  0BEF                     l150:
  5941  0BEF  0008               	return
  5942  0BF0                     __end_of_I2C_Write:
  5943                           
  5944                           	psect	text25
  5945  0BAD                     __ptext25:	
  5946 ;; *************** function _I2C_Ready *****************
  5947 ;; Defined at:
  5948 ;;		line 41 in file "I2C_Master.c"
  5949 ;; Parameters:    Size  Location     Type
  5950 ;;		None
  5951 ;; Auto vars:     Size  Location     Type
  5952 ;;		None
  5953 ;; Return value:  Size  Location     Type
  5954 ;;                  1    wreg      void 
  5955 ;; Registers used:
  5956 ;;		None
  5957 ;; Tracked objects:
  5958 ;;		On entry : 0/0
  5959 ;;		On exit  : 0/0
  5960 ;;		Unchanged: 0/0
  5961 ;; Data sizes:     COMMON   BANK0   BANK1   BANK3   BANK2
  5962 ;;      Params:         0       0       0       0       0
  5963 ;;      Locals:         0       0       0       0       0
  5964 ;;      Temps:          0       0       0       0       0
  5965 ;;      Totals:         0       0       0       0       0
  5966 ;;Total ram usage:        0 bytes
  5967 ;; Hardware stack levels used: 1
  5968 ;; This function calls:
  5969 ;;		Nothing
  5970 ;; This function is called by:
  5971 ;;		_I2C_Write
  5972 ;;		_I2C_Read
  5973 ;; This function uses a non-reentrant model
  5974 ;;
  5975                           
  5976  0BAD                     _I2C_Ready:	
  5977                           ;psect for function _I2C_Ready
  5978                           
  5979  0BAD                     l1797:	
  5980                           ;incstack = 0
  5981                           ; Regs used in _I2C_Ready: []
  5982                           
  5983  0BAD                     l109:	
  5984                           ;I2C_Master.c: 43:     while(!SSPIF);
  5985                           
  5986  0BAD  1283               	bcf	3,5	;RP0=0, select bank0
  5987  0BAE  1303               	bcf	3,6	;RP1=0, select bank0
  5988  0BAF  1D8C               	btfss	12,3	;volatile
  5989  0BB0  2BB2               	goto	u1641
  5990  0BB1  2BB3               	goto	u1640
  5991  0BB2                     u1641:
  5992  0BB2  2BAD               	goto	l109
  5993  0BB3                     u1640:
  5994  0BB3                     l111:
  5995                           
  5996                           ;I2C_Master.c: 44:     SSPIF=0;
  5997  0BB3  118C               	bcf	12,3	;volatile
  5998  0BB4                     l112:
  5999  0BB4  0008               	return
  6000  0BB5                     __end_of_I2C_Ready:
  6001  007E                     btemp	set	126	;btemp
  6002  007E                     wtemp0	set	126
  6003                           
  6004                           	psect	idloc
  6005                           
  6006                           ;Config register IDLOC0 @ 0x2000
  6007                           ;	unspecified, using default values
  6008  2000                     	org	8192
  6009  2000  3FFF               	dw	16383
  6010                           
  6011                           ;Config register IDLOC1 @ 0x2001
  6012                           ;	unspecified, using default values
  6013  2001                     	org	8193
  6014  2001  3FFF               	dw	16383
  6015                           
  6016                           ;Config register IDLOC2 @ 0x2002
  6017                           ;	unspecified, using default values
  6018  2002                     	org	8194
  6019  2002  3FFF               	dw	16383
  6020                           
  6021                           ;Config register IDLOC3 @ 0x2003
  6022                           ;	unspecified, using default values
  6023  2003                     	org	8195
  6024  2003  3FFF               	dw	16383
  6025                           
  6026                           	psect	config
  6027                           
  6028                           ;Config register CONFIG1 @ 0x2007
  6029                           ;	Oscillator Selection bits
  6030                           ;	FOSC = HS, HS oscillator: High-speed crystal/resonator on RA6/OSC2/CLKOUT and RA7/OSC1
      +                          /CLKIN
  6031                           ;	Watchdog Timer Enable bit
  6032                           ;	WDTE = OFF, WDT disabled and can be enabled by SWDTEN bit of the WDTCON register
  6033                           ;	Power-up Timer Enable bit
  6034                           ;	PWRTE = OFF, PWRT disabled
  6035                           ;	RE3/MCLR pin function select bit
  6036                           ;	MCLRE = OFF, RE3/MCLR pin function is digital input, MCLR internally tied to VDD
  6037                           ;	Code Protection bit
  6038                           ;	CP = OFF, Program memory code protection is disabled
  6039                           ;	Data Code Protection bit
  6040                           ;	CPD = OFF, Data memory code protection is disabled
  6041                           ;	Brown Out Reset Selection bits
  6042                           ;	BOREN = ON, BOR enabled
  6043                           ;	Internal External Switchover bit
  6044                           ;	IESO = ON, Internal/External Switchover mode is enabled
  6045                           ;	Fail-Safe Clock Monitor Enabled bit
  6046                           ;	FCMEN = ON, Fail-Safe Clock Monitor is enabled
  6047                           ;	Low Voltage Programming Enable bit
  6048                           ;	LVP = OFF, RB3 pin has digital I/O, HV on MCLR must be used for programming
  6049                           ;	In-Circuit Debugger Mode bit
  6050                           ;	DEBUG = 0x1, unprogrammed default
  6051  2007                     	org	8199
  6052  2007  2FD2               	dw	12242
  6053                           
  6054                           ;Config register CONFIG2 @ 0x2008
  6055                           ;	Brown-out Reset Selection bit
  6056                           ;	BOR4V = BOR40V, Brown-out Reset set to 4.0V
  6057                           ;	Flash Program Memory Self Write Enable bits
  6058                           ;	WRT = OFF, Write protection off
  6059  2008                     	org	8200
  6060  2008  3FFF               	dw	16383

Data Sizes:
    Strings     22
    Constant    10
    Data        1
    BSS         7
    Persistent  0
    Stack       0

Auto Spaces:
    Space          Size  Autos    Used
    COMMON           14     14      14
    BANK0            80     61      69
    BANK1            80      0       0
    BANK3            96      0       0
    BANK2            96      0       0

Pointer List with Targets:

    sprintf@f	PTR const unsigned char  size(1) Largest target is 11
		 -> STR_2(CODE[11]), STR_1(CODE[11]), 

    sprintf@sp	PTR unsigned char  size(1) Largest target is 16
		 -> Display@buffer2(BANK0[16]), Display@buffer1(BANK0[16]), 

    sprintf@ap	PTR void [1] size(1) Largest target is 2
		 -> ?_sprintf(BANK0[2]), 

    LCD_Write_String@Str	PTR const unsigned char  size(1) Largest target is 16
		 -> Display@buffer2(BANK0[16]), Display@buffer1(BANK0[16]), 


Critical Paths under _main in COMMON

    _Update_Celsius->___xxtofl
    ___fltol->___xxtofl
    ___flmul->___xxtofl
    ___fladd->___xxtofl
    _LCD_Init->_LCD_CMD
    _sprintf->___lwmod
    ___lwmod->___lwdiv
    _LCD_Write_String->_LCD_Write_Char
    _LCD_Write_Char->_LCD_Write_4Bit
    _LCD_Set_Cursor->_LCD_CMD
    _LCD_Clear->_LCD_CMD
    _LCD_CMD->_LCD_Write_4Bit
    _LCD_Write_4Bit->_IO_Expander_Write
    _IO_Expander_Write->_I2C_Start
    _I2C_Start->_I2C_Write

Critical Paths under _main in BANK0

    _main->_Update_Celsius
    _Update_Celsius->___fltol
    ___fltol->___fladd
    ___fladd->___flmul
    _Display->_sprintf

Critical Paths under _main in BANK1

    None.

Critical Paths under _main in BANK3

    None.

Critical Paths under _main in BANK2

    None.

Call Graph Tables:

 ---------------------------------------------------------------------------------
 (Depth) Function   	        Calls       Base Space   Used Autos Params    Refs
 ---------------------------------------------------------------------------------
 (0) _main                                                 2     2      0    9659
                                             59 BANK0      2     2      0
                            _Display
                           _I2C_Init
                          _LCD_Clear
                           _LCD_Init
                     _Update_Celsius
 ---------------------------------------------------------------------------------
 (1) _Update_Celsius                                       2     2      0    6294
                                             57 BANK0      2     2      0
                            ___fladd
                            ___flmul
                            ___fltol
                           ___xxtofl
 ---------------------------------------------------------------------------------
 (2) ___xxtofl                                            14    10      4     550
                                              0 COMMON    14    10      4
 ---------------------------------------------------------------------------------
 (2) ___fltol                                             11     7      4     457
                                             46 BANK0     11     7      4
                            ___fladd (ARG)
                            ___flmul (ARG)
                           ___xxtofl (ARG)
 ---------------------------------------------------------------------------------
 (2) ___flmul                                             26    18      8    2721
                                              0 BANK0     26    18      8
                          __Umul8_16
                           ___xxtofl (ARG)
 ---------------------------------------------------------------------------------
 (3) __Umul8_16                                            9     7      2     799
                                              0 COMMON     9     7      2
 ---------------------------------------------------------------------------------
 (2) ___fladd                                             20    12      8    2566
                                             26 BANK0     20    12      8
                            ___flmul (ARG)
                           ___xxtofl (ARG)
 ---------------------------------------------------------------------------------
 (1) _LCD_Init                                             2     2      0     265
                                              7 COMMON     2     2      0
                  _IO_Expander_Write
                            _LCD_CMD
 ---------------------------------------------------------------------------------
 (1) _I2C_Init                                             0     0      0       0
 ---------------------------------------------------------------------------------
 (1) _Display                                             35    35      0    2923
                                             15 BANK0     35    35      0
                          _LCD_Clear
                     _LCD_Set_Cursor
                   _LCD_Write_String
                            _sprintf
 ---------------------------------------------------------------------------------
 (2) _sprintf                                             23    20      3    1905
                                              0 BANK0     15    12      3
                            ___lwdiv
                            ___lwmod
                             ___wmul
                            _isdigit
 ---------------------------------------------------------------------------------
 (3) _isdigit                                              2     2      0      68
                                              0 COMMON     2     2      0
 ---------------------------------------------------------------------------------
 (3) ___wmul                                               6     2      4     244
                                              0 COMMON     6     2      4
 ---------------------------------------------------------------------------------
 (3) ___lwmod                                              6     2      4     311
                                              8 COMMON     6     2      4
                            ___lwdiv (ARG)
 ---------------------------------------------------------------------------------
 (3) ___lwdiv                                              8     4      4     314
                                              0 COMMON     8     4      4
 ---------------------------------------------------------------------------------
 (2) _LCD_Write_String                                     4     4      0     366
                                              7 COMMON     4     4      0
                     _LCD_Write_Char
 ---------------------------------------------------------------------------------
 (3) _LCD_Write_Char                                       2     2      0     177
                                              5 COMMON     2     2      0
                     _LCD_Write_4Bit
 ---------------------------------------------------------------------------------
 (2) _LCD_Set_Cursor                                       4     3      1     363
                                              7 COMMON     4     3      1
                            _LCD_CMD
 ---------------------------------------------------------------------------------
 (1) _LCD_Clear                                            1     1      0     177
                                              7 COMMON     1     1      0
                            _LCD_CMD
 ---------------------------------------------------------------------------------
 (2) _LCD_CMD                                              2     2      0     177
                                              5 COMMON     2     2      0
                     _LCD_Write_4Bit
 ---------------------------------------------------------------------------------
 (3) _LCD_Write_4Bit                                       2     2      0     133
                                              3 COMMON     2     2      0
                  _IO_Expander_Write
 ---------------------------------------------------------------------------------
 (4) _IO_Expander_Write                                    1     1      0      88
                                              2 COMMON     1     1      0
                          _I2C_Start
                           _I2C_Stop
                          _I2C_Write
 ---------------------------------------------------------------------------------
 (5) _I2C_Stop                                             0     0      0       0
 ---------------------------------------------------------------------------------
 (5) _I2C_Start                                            1     1      0      44
                                              1 COMMON     1     1      0
                          _I2C_Write
 ---------------------------------------------------------------------------------
 (5) _I2C_Write                                            1     1      0      22
                                              0 COMMON     1     1      0
                          _I2C_Ready
 ---------------------------------------------------------------------------------
 (6) _I2C_Ready                                            0     0      0       0
 ---------------------------------------------------------------------------------
 Estimated maximum stack depth 6
 ---------------------------------------------------------------------------------

 Call Graph Graphs:

 _main (ROOT)
   _Display
     _LCD_Clear
       _LCD_CMD
         _LCD_Write_4Bit
           _IO_Expander_Write
             _I2C_Start
               _I2C_Write
                 _I2C_Ready
             _I2C_Stop
             _I2C_Write
     _LCD_Set_Cursor
       _LCD_CMD
     _LCD_Write_String
       _LCD_Write_Char
         _LCD_Write_4Bit
     _sprintf
       ___lwdiv
       ___lwmod
         ___lwdiv (ARG)
       ___wmul
       _isdigit
   _I2C_Init
   _LCD_Clear
   _LCD_Init
     _IO_Expander_Write
     _LCD_CMD
   _Update_Celsius
     ___fladd
       ___flmul (ARG)
         __Umul8_16
         ___xxtofl (ARG)
       ___xxtofl (ARG)
     ___flmul
     ___fltol
       ___fladd (ARG)
       ___flmul (ARG)
       ___xxtofl (ARG)
     ___xxtofl

 Address spaces:
Name               Size   Autos  Total    Cost      Usage
BANK3               60      0       0       9        0.0%
BITBANK3            60      0       0       8        0.0%
SFR3                 0      0       0       4        0.0%
BITSFR3              0      0       0       4        0.0%
BANK2               60      0       0      11        0.0%
BITBANK2            60      0       0      10        0.0%
SFR2                 0      0       0       5        0.0%
BITSFR2              0      0       0       5        0.0%
BANK1               50      0       0       7        0.0%
BITBANK1            50      0       0       6        0.0%
SFR1                 0      0       0       2        0.0%
BITSFR1              0      0       0       2        0.0%
BANK0               50     3D      45       5       86.2%
BITBANK0            50      0       0       4        0.0%
SFR0                 0      0       0       1        0.0%
BITSFR0              0      0       0       1        0.0%
COMMON               E      E       E       1      100.0%
BITCOMMON            E      0       0       0        0.0%
CODE                 0      0       0       0        0.0%
DATA                 0      0      53      12        0.0%
ABS                  0      0      53       3        0.0%
NULL                 0      0       0       0        0.0%
STACK                0      0       0       2        0.0%
EEDATA             100      0       0       0        0.0%


Microchip Technology PIC Macro Assembler V2.35 build 20211206165544 
Symbol Table                                                                                   Fri Apr 15 10:50:21 2022

                           pc 0002                   _SSPSTATbits 0094                            l43 0E45  
                          _RS 0061                            fsr 0004           ___wmul@multiplicand 0072  
         __Umul8_16@word_mpld 0076                           l111 0BB3                           l112 0BB4  
                         l201 0C85                           l130 0C32                           l106 0C03  
                         l109 0BAD                           l150 0BEF                           l126 0C1E  
                         l142 0BB8                           l231 0BC9                           l207 0CA6  
                         l128 0C22                           l144 0BBC                           l216 0D28  
                         l146 0BBD                           l254 0E49                           l192 0C19  
                         l257 0EBE                           l195 0C4C                           l700 03FF  
                         l189 0F45                           l198 0C68                           l382 0CB3  
                         l367 015F                           l384 0CCB                           l378 0205  
                         l706 0421                           l717 0481                           l709 045F  
                         l821 0FAD                           l654 0DA6                           l718 048D  
                         l575 006A                           l815 0F68                           l664 0D62  
                         l568 007F                           l681 02E7                           l817 0FFF  
                         l578 007F                           l835 0BDB                           l675 0269  
                         l771 07EE                           l828 0FC9                           l829 0FD5  
                         l790 0CE0                           l679 0310                           l783 07E2  
                         l696 03DB                           l688 048D                           l792 0CF2  
                         l777 075A              ??_Update_Celsius 0059                           _PEN 048A  
                         fsr0 0004                           indf 0000                  ___flmul@aexp 0032  
                ___flmul@bexp 0033                  ___flmul@sign 002D                  ___flmul@temp 0038  
                ___flmul@prod 0034               __end_of_LCD_CMD 0C69           LCD_Write_String@Str 007A  
              _LCD_Set_Cursor 0CF3                  ___fltol@exp1 0058                          l2001 01A4  
                        l2011 01E6                          l2003 01A8                          l2005 01AD  
                        l2013 01EF                          l2101 022A                          l2023 0BBE  
                        l2031 0C95                          l2007 01DB                          l2015 0201  
                        l2111 0240                          l2103 022B                          l2025 0BC4  
                        l2041 0D05                          l2033 0C9B                          l2009 01E2  
                        l2201 034C                          l2121 0251                          l2113 0241  
                        l2105 022D                          l2043 0D0D                          l2035 0CF4  
                        l2027 0C87                          l2211 0375                          l2203 0350  
                        l2131 026F                          l2123 0256                          l2115 0247  
                        l2107 0235                          l2051 0004                          l2037 0CF5  
                        l2045 0D15                          l2029 0C8A                          l2221 03E3  
                        l2213 03B3                          l2205 0351                          l2141 0283  
                        l2133 0273                          l2125 025E                          l2117 024B  
                        l2109 023A                          l2301 04C1                          l2061 0030  
                        l2053 0011                          l2039 0CFD                          l2231 03FE  
                        l2223 03E8                          l2215 03B9                          l2207 035A  
                        l2151 0297                          l2143 0287                          l2135 0277  
                        l2127 025F                          l2119 024C                          l2311 04D6  
                        l2303 04C7                          l2063 0038                          l2233 0403  
                        l2241 040F                          l2217 03BE                          l2209 035F  
                        l2161 02AB                          l2153 029B                          l2145 028B  
                        l2137 027B                          l2129 0261                          l2401 07A2  
                        l2321 04F2                          l2313 04DE                          l2305 04CB  
                        l2081 005F                          l2073 0046                          l2065 003A  
                        l2057 001A                          l2235 0406                          l2227 03F1  
                        l2219 03CD                          l2243 0413                          l2171 02EB  
                        l2163 02AF                          l2155 029F                          l2147 028F  
                        l2139 027F                          l2091 0213                          l2411 07D6  
                        l2403 07AD                          l2331 0535                          l2315 04E0  
                        l2307 04CC                          l2083 006F                          l2067 003E  
                        l2075 0058                          l2059 002F                          l2501 0F36  
                        l2261 045B                          l2253 0426                          l2245 0414  
                        l2237 0408                          l2229 03FA                          l2181 0304  
                        l2173 02F4                          l2157 02A3                          l2149 0293  
                        l2165 02B3                          l2093 0217                          l2413 07DA  
                        l2405 07BC                          l2341 05BE                          l2333 0551  
                        l2325 04FB                          l2317 04E8                          l2309 04D1  
                        l2085 0074                          l2421 0F47                          l2503 0F3C  
                        l2271 0477                          l2263 0464                          l2255 042B  
                        l2247 0418                          l2239 040D                          l2191 0322  
                        l2175 02F6                          l2183 0308                          l2167 02B4  
                        l2159 02A7                          l2095 0218                          l2087 0206  
                        l2415 07DB                          l2407 07C6                          l2351 0631  
                        l2343 05CE                          l2335 057D                          l2327 050B  
                        l2319 04ED                          l2423 0F4C                          l2511 0E56  
                        l1801 0BE1                          l2273 047B                          l2265 0469  
                        l2257 0439                          l2249 041E                          l2193 0339  
                        l2185 0314                          l2177 02FA                          l2169 02CB  
                        l2097 021D                          l2089 020D                          l2417 07E6  
                        l2409 07C8                          l2361 06DE                          l2353 064E  
                        l2345 05EB                          l2337 0599                          l2329 0518  
                        l2281 048E                          l2441 0F96                          l2433 0F79  
                        l2425 0F50                          l2513 0E5D                          l2505 0E46  
                        l2521 0DA7                          l1811 0BEE                          l1803 0BE6  
                        l2275 047D                          l2267 0471                          l2259 043D  
                        l2195 033D                          l2187 0319                          l2179 02FB  
                        l2099 0222                          l2371 072A                          l2363 0706  
                        l2355 067B                          l2347 05FB                          l2339 05B5  
                        l2291 04A5                          l2283 0495                          l2451 0FCD  
                        l2443 0FA4                          l2435 0F7E                          l2427 0F60  
                        l2515 0E6A                          l2507 0E4D                          l2531 0DB3  
                        l2523 0DAA                          l1805 0BEC                          l1821 0C2C  
                        l1901 0D39                          l1581 0BFD                          l2277 0488  
                        l2269 0476                          l2197 0341                          l2381 073F  
                        l2373 072B                          l2365 070F                          l2357 068B  
                        l2349 0618                          l2293 04AA                          l2285 049B  
                        l2461 0FF7                          l2453 0FD7                          l2445 0FB4  
                        l2437 0F8B                          l2429 0F70                          l2517 0E6B  
                        l2509 0E4F                          l2541 0DC0                          l2533 0DB4  
                        l2525 0DAC                          l1815 0BB5                          l1831 0C41  
                        l1911 0D58                          l1903 0D3D                          l2471 0E23  
                        l1583 0BFF                          l1575 0BF0                          l2279 048C  
                        l2199 034A                          l2391 0764                          l2383 0743  
                        l2375 0734                          l2367 071D                          l2359 06B8  
                        l2295 04B2                          l2287 049F                          l2455 0FED  
                        l2447 0FBF                          l2439 0F92                          l2519 0EBA  
                        l2551 0DCB                          l2543 0DC1                          l2535 0DB5  
                        l2527 0DAF                          l1817 0C1B                          l1825 0C05  
                        l1833 0C4E                          l1841 0C6E                          l1905 0D41  
                        l1913 0D5E                          l2473 0E29                          l2465 0DF3  
                        l1585 0C00                          l1577 0BF4                          l2481 0EC5  
                        l1921 0CD6                          l2393 0772                          l2385 0757  
                        l2369 0726                          l2377 073A                          l2297 04B4  
                        l2289 04A0                          l2457 0FF2                          l2449 0FC3  
                        l2561 0DEA                          l2553 0DD0                          l2545 0DC2  
                        l2537 0DB9                          l2529 0DB0                          l1827 0C34  
                        l1835 0C51                          l1907 0D4B                          l1851 0BDA  
                        l1843 0BCB                          l1931 0083                          l2475 0E30  
                        l2467 0E13                          l1579 0BFA                          l2491 0EFA  
                        l2483 0ECD                          l1923 0CDA                          l2395 0776  
                        l2379 073E                          l2299 04BC                          l2459 0FF6  
                        l2555 0DD5                          l2547 0DC5                          l2539 0DBD  
                        l1829 0C3A                          l1837 0C58                          l1909 0D51  
                        l1861 0CBA                          l1845 0BCC                          l1941 009D  
                        l1933 0088                          l2477 0E36                          l2469 0E18  
                        l2493 0F09                          l2485 0EDC                          l1925 0CE9  
                        l1917 0CCD                          l2397 078F                          l2389 075F  
                        l2557 0DDA                          l2549 0DC8                          l1839 0C6A  
                        l1871 0D65                          l1863 0CC1                          l1855 0CA7  
                        l1847 0BD2                          l1951 00DD                          l1943 00AD  
                        l1935 008E                          l2495 0F0F                          l2487 0EE2  
                        l2479 0EBF                          l1927 0CEE                          l1919 0CCF  
                        l2399 0795                          l2559 0DE5                          l1881 0D7D  
                        l1873 0D6B                          l1865 0CC7                          l1857 0CA9  
                        l1849 0BD8                          l1961 0118                          l1945 00B1  
                        l1937 0095                          l2497 0F1E                          l2489 0EF1  
                        l1883 0D8E                          l1875 0D6E                          l1891 0DA2  
                        l1859 0CAD                          l1963 011C                          l2683 0101  
                        l1947 00C6                          l1955 00ED                          l1939 009A  
                        l2499 0F27                          l1797 0BAD                          l2685 0D1D  
                        l1885 0D94                          l1877 0D75                          l1869 0D63  
                        l1981 0153                          l1973 0127                          l1965 0120  
                        l1957 010C                          l1949 00D9                          l1799 0BDD  
                        l1887 0D95                          l1879 0D79                          l1895 0D29  
                        l1991 0180                          l1983 0159                          l1967 0125  
                        l1959 0114                          l1889 0D9C                          l1897 0D2F  
                        l1993 0187                          l1985 016A                          l1977 0143  
                        l1899 0D32                          l1995 018B                          l1987 0176  
                        l1979 014D                          l1997 0197                          l1989 017A  
                        l1999 019D                          STR_1 0810                          STR_2 081B  
                        u2000 0159                          u2001 0158                          u2010 016A  
                        u2011 0169                          u2020 0180                          u2100 003E  
                        u2021 017F                          u2101 003D                          u2030 0197  
                        u2110 0045                          u2031 0196                          u2015 0166  
                        u2111 0044                          u2040 019D                          u2200 0222  
                        u3000 07DA                          u2041 019C                          u2201 0221  
                        u3001 07D9                          u2050 01EF                          u2210 0240  
                        u2130 0057                          u3010 0F4C                          u2051 01EE  
                        u2211 023F                          u2131 0056                          u3011 0F4B  
                        u2060 0201                          u2300 02EB                          u2220 024B  
                        u2140 005E                          u3100 0FC9                          u3020 0F50  
                        u2061 0200                          u2301 02EA                          u2221 024A  
                        u2141 005D                          u2125 0047                          u3101 0FC8  
                        u3021 0F4F                          u2070 0CA6                          u2310 02FA  
                        u2230 0251                          u3110 0FCD                          u3030 0F70  
                        u2071 0CA5                          u2311 02F9                          u2231 0250  
                        u3111 0FCC                          u3031 0F6F                          u2240 0256  
                        u2160 006F                          u2080 0011                          u3120 0FE2  
                        u2241 0255                          u2161 006E                          u2081 0010  
                        u2410 0375                          u2330 0310                          u2250 026F  
                        u2170 0074                          u2090 0028                          u3130 0FF2  
                        u3050 0F91                          u2411 0374                          u2331 030F  
                        u2251 026E                          u2171 0073                          u2155 0061  
                        u3131 0FF1                          u3051 0F90                          u2500 040D  
                        u2340 0314                          u2260 0273                          u2180 0217  
                        u3140 0FF6                          u2501 040C                          u2421 038C  
                        u2413 0371                          u2405 0353                          u2341 0313  
                        u2325 02FD                          u2261 0272                          u2181 0216  
                        u3141 0FF5                          u3125 0FDD                          u3045 0F83  
                        u1710 0BD2                          u2510 0413                          u2430 03A0  
                        u2422 038D                          u2350 0319                          u2270 02CB  
                        u2190 021D                          u3070 0FB3                          u3150 0E4D  
                        u1711 0BD1                          u2511 0412                          u2431 03A1  
                        u2423 0392                          u2351 0318                          u2271 02CA  
                        u2191 021C                          u2095 0023                          u3071 0FB2  
                        u3151 0E4C                          u1640 0BB3                          u1720 0BD8  
                        u2600 0469                          u2520 0418                          u2440 03BE  
                        u2432 03A6                          u2424 0393                          u2280 02D6  
                        u1641 0BB2                          u1705 0C78                          u1721 0BD7  
                        u2601 0468                          u2521 0417                          u2441 03BD  
                        u2433 03A7                          u2425 0398                          u2361 032B  
                        u2281 02D4                          u3065 0FA5                          u1650 0BEC  
                        u1810 0D8E                          u1730 0CAD                          u2610 0476  
                        u2530 041E                          u2450 03E3                          u2426 0399  
                        u2370 033D                          u2362 0332                          u2290 02D7  
                        u3090 0FC3                          u1651 0BEB                          u1811 0D8D  
                        u1731 0CAC                          u3307 0F04                          u2611 0475  
                        u2531 041D                          u2451 03E2                          u2371 033C  
                        u2363 0339                          u2275 02C7                          u3091 0FC2  
                        u1660 0BBC                          u2620 047B                          u2540 0425  
                        u2460 03E8                          u2380 0341                          u1900 0CDA  
                        u2700 04ED                          u1661 0BBB                          u1805 0D7E  
                        u3317 0F13                          u2621 047A                          u2541 0424  
                        u2461 03E7                          u2381 0340                          u1901 0CD9  
                        u2701 04EC                          u3085 0FB8                          u1670 0C22  
                        u1830 0DA2                          u2630 048C                          u2550 042B  
                        u2390 0350                          u2710 04F2                          u1671 0C21  
                        u1831 0DA1                          u1815 0D8A                          u3327 0F22  
                        u2631 048B                          u2551 042A                          u2391 034F  
                        u2711 04F1                          u1680 0C2B                          u1840 0D2F  
                        u1760 0CC7                          u2560 043D                          u2480 03FE  
                        u1920 0CEE                          u2640 049F                          u1681 0C2A  
                        u1825 0D96                          u1841 0D2E                          u1761 0CC6  
                        u1745 0CB4                          u3337 0F31                          u2561 043C  
                        u2481 03FD                          u1921 0CED                          u2801 0640  
                        u2721 0543                          u2641 049E                          u3257 0DE0  
                        u1770 0D6B                          u1930 008E                          u2570 044C  
                        u2490 0403                          u2802 0647                          u2722 054A  
                        u2650 04A5                          u1771 0D6A                          u1755 0CBB  
                        u1931 008D                          u3347 0F40                          u3267 0EC9  
                        u2491 0402                          u2475 03F3                          u1915 0CE1  
                        u2811 066D                          u2803 064E                          u2731 055F  
                        u2723 0551                          u2651 04A4                          u1860 0D41  
                        u1940 00AD                          u2580 045B                          u2812 0674  
                        u2732 0566                          u2660 04AA                          u1861 0D40  
                        u1941 00AC                          u3357 0E1E                          u3277 0ED7  
                        u2581 045A                          u2821 069A                          u2813 067B  
                        u2741 058B                          u2733 056D                          u2661 04A9  
                        u1790 0D7D                          u1870 0D4B                          u1950 00ED  
                        u2590 0464                          u2910 073E                          u2830 06C4  
                        u2822 06A1                          u2742 0592                          u2670 04CB  
                        u1695 0C5B                          u1791 0D7C                          u1871 0D4A  
                        u1855 0D33                          u1951 00EC                          u3367 0E3E  
                        u3287 0EE6                          u2591 0463                          u2575 0447  
                        u2911 073D                          u2823 06A8                          u2751 05A7  
                        u2743 0599                          u2671 04CA                          u1960 011C  
                        u2920 0743                          u2752 05AE                          u2680 04D1  
                        u3377 0BC6                          u1785 0D6F                          u1961 011B  
                        u3297 0EF5                          u2921 0742                          u2905 072D  
                        u2841 06D0                          u2753 05B5                          u2681 04D0  
                        u1890 0D5E                          u1970 0142                          u2930 0757  
                        u2850 06EC                          u2842 06D7                          u2690 04D6  
                        u3387 0C4A                          u1891 0D5D                          u1875 0D47  
                        u1971 0141                          u2931 0756                          u2843 06DE  
                        u2835 06BF                          u2771 05DD                          u2691 04D5  
                        u1980 014D                          u2940 075E                          u2772 05E4  
                        u1885 0D52                          u1981 014C                          u2941 075D  
                        u2861 06F8                          u2781 060A                          u2773 05EB  
                        u2765 05B7                          u1990 0153                          u2950 0764  
                        u2862 06FF                          u2782 0611                          u1991 0152  
                        u1975 013E                          u2951 0763                          u2863 0706  
                        u2855 06E7                          u2783 0618                          u2960 0776  
                        u2961 0775                          u2970 0785                          u2890 072A  
                        u2891 0729                          u2875 0708                          u2795 061A  
                        u2980 07A2                          _RCEN 048B                          u2981 07A1  
                        u2885 071F                          u2990 07BC                          u2991 07BB  
                        u2975 0780                          u2985 079E                          u2995 07B8  
                        _RSEN 0489             ?_LCD_Write_String 0070                          _main 0DA7  
            __end_of_I2C_Init 0C04                          btemp 007E              __end_of_I2C_Stop 0BBE  
                        start 0000            ??_LCD_Write_String 0077               __end_of_Display 0E46  
        LCD_Write_4Bit@Nibble 0074              __end_of_LCD_Init 0F46                 ___fltol@sign1 0057  
             __end_of___fladd 048E                         ?_main 0070                         _ACKEN 048C  
                       _ACKDT 048D               __end_of___flmul 07EF               __end_of___fltol 0080  
                       _ANSEL 0188               __end_of___lwdiv 0DA7               __end_of___lwmod 0D63  
                       _PORTA 0005                         _PORTB 0006                         _TRISA 0085  
                       _TRISB 0086                         _SSPIE 0463                         _SSPIF 0063  
      __end_of_LCD_Set_Cursor 0D29               __end_of_dpowers 0810               __end_of_isdigit 0BDC  
           __end_of_I2C_Ready 0BB5             __end_of_I2C_Start 0C33             __end_of_I2C_Write 0BF0  
                       pclath 000A                         status 0003                         wtemp0 007E  
             __end_of_sprintf 0206                _LCD_Write_4Bit 0C33                _LCD_Write_Char 0C69  
             __initialization 07EF                  __end_of_main 0DF3             _IO_Expander_Write 0C04  
          ?_IO_Expander_Write 0070                        ??_main 005B             __end_of_LCD_Clear 0BCA  
                   ??_LCD_CMD 0075           ??_IO_Expander_Write 0072               ?_LCD_Set_Cursor 0077  
                      _ADRESH 001E                        _ADRESL 009E                        _ANSELH 0189  
                      _SSPADD 0093                        _TRISB0 0430                        _TRISB1 0431  
                      _SSPBUF 0013                        _SSPCON 0014                     ??_Display 002F  
      __end_of_LCD_Write_4Bit 0C4D              __end_of___xxtofl 1000        __end_of_LCD_Write_Char 0C86  
   __end_of_IO_Expander_Write 0C1A                     ??___fladd 0042                        ___wmul 0CA7  
                   ??___flmul 0028                     ??___fltol 0052                     ??___lwdiv 0074  
                   ??___lwmod 007C                        _result 0062                     ??_isdigit 0070  
                   ?_I2C_Init 0070                     ?_I2C_Stop 0070                     ??_sprintf 0023  
                ___xxtofl@arg 007A                  ___xxtofl@exp 0079                  ___xxtofl@val 0070  
     __end_of__initialization 07FC                     ?_LCD_Init 0070               ?_LCD_Write_4Bit 0070  
                  ___fltol@f1 004E               ?_LCD_Write_Char 0070                __pcstackCOMMON 0070  
                __pidataBANK0 0003                    ??_I2C_Init 0070                    ??_I2C_Stop 0070  
                sprintf@width 002B                    __pbssBANK0 005D                    ??_LCD_Init 0077  
           __end_of__Umul8_16 0CF3                    __pmaintext 0DA7                       ?___wmul 0070  
                     _ACKSTAT 048E                       _LCD_CMD 0C4D                     ?___xxtofl 0070  
                     _SSPCON2 0091                       _SSPSTAT 0094                    __stringtab 0800  
                     _Display 0DF3                     _I2C_Ready 0BAD                     _I2C_Start 0C1A  
                   _I2C_Write 0BDC                       ___fladd 0206                       ___flmul 048E  
                     ___fltol 0004                       ___lwdiv 0D63                       ___lwmod 0D29  
                   _ANSELbits 0188              ??_LCD_Set_Cursor 0078                       __ptext1 0E46  
                     __ptext2 0F46                       __ptext3 0004                       __ptext4 048E  
                     __ptext5 0CCC                       __ptext6 0206                       __ptext7 0EBF  
                     __ptext8 0BF0                       __ptext9 0DF3                       _dpowers 0806  
                     _isdigit 0BCA                    ??___xxtofl 0074                     _LCD_Clear 0BBE  
                     _sprintf 0080          end_of_initialization 07FC                    ?_I2C_Ready 0070  
                  ?_I2C_Start 0070                    ?_I2C_Write 0070                    LCD_CMD@CMD 0076  
                 ___fladd@grs 004D                 ___xxtofl@sign 0078                    ?_LCD_Clear 0070  
            ??_LCD_Write_4Bit 0073             LCD_Write_String@i 0078              ??_LCD_Write_Char 0075  
                 ___flmul@grs 002E                __end_of___wmul 0CCC              _LCD_Write_String 0C86  
         start_initialization 07EF                   ??_I2C_Ready 0070                   ??_I2C_Start 0071  
                 ??_I2C_Write 0070                     _Temp_Mode 005D                      ??___wmul 0074  
                   __Umul8_16 0CCC                   __pdataBANK0 0064                     ___fladd@a 003E  
                   ___fladd@b 003A                      ?_LCD_CMD 0070                     ___flmul@a 0024  
                   ___flmul@b 0020                     ___latbits 0002                 __pcstackBANK0 0020  
                 ??_LCD_Clear 0077                _Update_Celsius 0E46                   sprintf@flag 0028  
                 sprintf@prec 0027                      ?_Display 0070              ___lwdiv@dividend 0072  
       IO_Expander_Write@Data 0072                      ?___fladd 003A                      ?___flmul 0020  
                    ?___fltol 004E                    ?__Umul8_16 0070                      ?___lwdiv 0070  
                    ?___lwmod 0078                     __pstrings 0800                      ?_isdigit 0070  
                    _I2C_Init 0BF0                      _I2C_Stop 0BB5        __end_of_Update_Celsius 0EBF  
            ___lwdiv@quotient 0075                      ?_sprintf 0020                      _LCD_Init 0EBF  
              ___wmul@product 0074                      _PIE1bits 008C                Display@buffer1 0032  
              Display@buffer2 0042                      _PIR1bits 000C                    _ADCON0bits 001F  
                 __stringbase 0805                    _ADCON1bits 009F             ___wmul@multiplier 0070  
             ?_Update_Celsius 0070  I2C_Start@slave_write_address 0071      __end_of_LCD_Write_String 0CA7  
               I2C_Write@data 0070                   ??__Umul8_16 0072            __end_of__stringtab 0806  
                 _isdigit$972 0070                    sprintf@val 0029                      ___xxtofl 0F46  
             ___lwdiv@divisor 0070               ___lwdiv@counter 0077                      __ptext10 0080  
                    __ptext11 0BCA                      __ptext20 0C33                      __ptext12 0CA7  
                    __ptext21 0C04                      __ptext13 0D29                      __ptext22 0BB5  
                    __ptext14 0D63                      __ptext23 0C1A                      __ptext15 0C86  
                    __ptext24 0BDC                      __ptext16 0C69                      __ptext25 0BAD  
                    __ptext17 0CF3                      __ptext18 0BBE                      __ptext19 0C4D  
             _BackLight_State 0064            LCD_Write_Char@Data 0076                      isdigit@c 0071  
                   sprintf@ap 0026                     sprintf@sp 002D              ___lwmod@dividend 007A  
                   stringcode 0800        __Umul8_16@multiplicand 0070                   _temperature 005F  
                    sprintf@c 002E                      sprintf@f 0020               ___lwmod@divisor 0078  
             ___lwmod@counter 007D                      stringdir 0800                      stringtab 0800  
           LCD_Set_Cursor@COL 0077             LCD_Set_Cursor@ROW 007A                   _SSPCON2bits 0091  
               ___fladd@signs 004A                  ___fladd@aexp 004B                  ___fladd@bexp 004C  
        __Umul8_16@multiplier 0078             __Umul8_16@product 0074  
